
kernel/axel.kernel:     file format elf32-i386


Disassembly of section .text:

00100000 <deregister_tm_clones-0x10>:
  100000:	02 b0 ad 1b 03 00    	add    0x31bad(%eax),%dh
  100006:	00 00                	add    %al,(%eax)
  100008:	fb                   	sti    
  100009:	4f                   	dec    %edi
  10000a:	52                   	push   %edx
  10000b:	e4 66                	in     $0x66,%al
  10000d:	90                   	nop
  10000e:	66 90                	xchg   %ax,%ax

00100010 <deregister_tm_clones>:
  100010:	b8 30 b4 10 00       	mov    $0x10b430,%eax
  100015:	3d 30 b4 10 00       	cmp    $0x10b430,%eax
  10001a:	74 24                	je     100040 <deregister_tm_clones+0x30>
  10001c:	b8 00 00 00 00       	mov    $0x0,%eax
  100021:	85 c0                	test   %eax,%eax
  100023:	74 1b                	je     100040 <deregister_tm_clones+0x30>
  100025:	55                   	push   %ebp
  100026:	89 e5                	mov    %esp,%ebp
  100028:	83 ec 14             	sub    $0x14,%esp
  10002b:	68 30 b4 10 00       	push   $0x10b430
  100030:	ff d0                	call   *%eax
  100032:	83 c4 10             	add    $0x10,%esp
  100035:	c9                   	leave  
  100036:	c3                   	ret    
  100037:	8d b4 26 00 00 00 00 	lea    0x0(%esi,%eiz,1),%esi
  10003e:	66 90                	xchg   %ax,%ax
  100040:	c3                   	ret    
  100041:	8d b4 26 00 00 00 00 	lea    0x0(%esi,%eiz,1),%esi
  100048:	8d b4 26 00 00 00 00 	lea    0x0(%esi,%eiz,1),%esi
  10004f:	90                   	nop

00100050 <register_tm_clones>:
  100050:	b8 30 b4 10 00       	mov    $0x10b430,%eax
  100055:	2d 30 b4 10 00       	sub    $0x10b430,%eax
  10005a:	89 c2                	mov    %eax,%edx
  10005c:	c1 e8 1f             	shr    $0x1f,%eax
  10005f:	c1 fa 02             	sar    $0x2,%edx
  100062:	01 d0                	add    %edx,%eax
  100064:	d1 f8                	sar    %eax
  100066:	74 28                	je     100090 <register_tm_clones+0x40>
  100068:	ba 00 00 00 00       	mov    $0x0,%edx
  10006d:	85 d2                	test   %edx,%edx
  10006f:	74 1f                	je     100090 <register_tm_clones+0x40>
  100071:	55                   	push   %ebp
  100072:	89 e5                	mov    %esp,%ebp
  100074:	83 ec 10             	sub    $0x10,%esp
  100077:	50                   	push   %eax
  100078:	68 30 b4 10 00       	push   $0x10b430
  10007d:	ff d2                	call   *%edx
  10007f:	83 c4 10             	add    $0x10,%esp
  100082:	c9                   	leave  
  100083:	c3                   	ret    
  100084:	8d b4 26 00 00 00 00 	lea    0x0(%esi,%eiz,1),%esi
  10008b:	8d 74 26 00          	lea    0x0(%esi,%eiz,1),%esi
  10008f:	90                   	nop
  100090:	c3                   	ret    
  100091:	8d b4 26 00 00 00 00 	lea    0x0(%esi,%eiz,1),%esi
  100098:	8d b4 26 00 00 00 00 	lea    0x0(%esi,%eiz,1),%esi
  10009f:	90                   	nop

001000a0 <__do_global_dtors_aux>:
  1000a0:	80 3d 00 c0 10 00 00 	cmpb   $0x0,0x10c000
  1000a7:	75 67                	jne    100110 <__do_global_dtors_aux+0x70>
  1000a9:	55                   	push   %ebp
  1000aa:	a1 04 c0 10 00       	mov    0x10c004,%eax
  1000af:	89 e5                	mov    %esp,%ebp
  1000b1:	56                   	push   %esi
  1000b2:	be 28 b4 10 00       	mov    $0x10b428,%esi
  1000b7:	53                   	push   %ebx
  1000b8:	bb 2c b4 10 00       	mov    $0x10b42c,%ebx
  1000bd:	81 eb 28 b4 10 00    	sub    $0x10b428,%ebx
  1000c3:	c1 fb 02             	sar    $0x2,%ebx
  1000c6:	83 eb 01             	sub    $0x1,%ebx
  1000c9:	39 d8                	cmp    %ebx,%eax
  1000cb:	73 17                	jae    1000e4 <__do_global_dtors_aux+0x44>
  1000cd:	8d 76 00             	lea    0x0(%esi),%esi
  1000d0:	83 c0 01             	add    $0x1,%eax
  1000d3:	a3 04 c0 10 00       	mov    %eax,0x10c004
  1000d8:	ff 14 86             	call   *(%esi,%eax,4)
  1000db:	a1 04 c0 10 00       	mov    0x10c004,%eax
  1000e0:	39 d8                	cmp    %ebx,%eax
  1000e2:	72 ec                	jb     1000d0 <__do_global_dtors_aux+0x30>
  1000e4:	e8 27 ff ff ff       	call   100010 <deregister_tm_clones>
  1000e9:	b8 00 00 00 00       	mov    $0x0,%eax
  1000ee:	85 c0                	test   %eax,%eax
  1000f0:	74 10                	je     100102 <__do_global_dtors_aux+0x62>
  1000f2:	83 ec 0c             	sub    $0xc,%esp
  1000f5:	68 b0 ae 10 00       	push   $0x10aeb0
  1000fa:	e8 01 ff ef ff       	call   0 <ALIGN-0x1>
  1000ff:	83 c4 10             	add    $0x10,%esp
  100102:	c6 05 00 c0 10 00 01 	movb   $0x1,0x10c000
  100109:	8d 65 f8             	lea    -0x8(%ebp),%esp
  10010c:	5b                   	pop    %ebx
  10010d:	5e                   	pop    %esi
  10010e:	5d                   	pop    %ebp
  10010f:	c3                   	ret    
  100110:	c3                   	ret    
  100111:	8d b4 26 00 00 00 00 	lea    0x0(%esi,%eiz,1),%esi
  100118:	8d b4 26 00 00 00 00 	lea    0x0(%esi,%eiz,1),%esi
  10011f:	90                   	nop

00100120 <frame_dummy>:
  100120:	b8 00 00 00 00       	mov    $0x0,%eax
  100125:	85 c0                	test   %eax,%eax
  100127:	74 27                	je     100150 <frame_dummy+0x30>
  100129:	55                   	push   %ebp
  10012a:	89 e5                	mov    %esp,%ebp
  10012c:	83 ec 10             	sub    $0x10,%esp
  10012f:	68 08 c0 10 00       	push   $0x10c008
  100134:	68 b0 ae 10 00       	push   $0x10aeb0
  100139:	e8 c2 fe ef ff       	call   0 <ALIGN-0x1>
  10013e:	83 c4 10             	add    $0x10,%esp
  100141:	c9                   	leave  
  100142:	e9 09 ff ff ff       	jmp    100050 <register_tm_clones>
  100147:	8d b4 26 00 00 00 00 	lea    0x0(%esi,%eiz,1),%esi
  10014e:	66 90                	xchg   %ax,%ax
  100150:	e9 fb fe ff ff       	jmp    100050 <register_tm_clones>

00100155 <_start>:
  100155:	bc 20 00 11 00       	mov    $0x110020,%esp
  10015a:	54                   	push   %esp
  10015b:	50                   	push   %eax
  10015c:	53                   	push   %ebx
  10015d:	e8 69 6d 00 00       	call   106ecb <kernel_main>
  100162:	fa                   	cli    
  100163:	f4                   	hlt    
  100164:	eb fd                	jmp    100163 <_start+0xe>

00100166 <vga_entry_color>:
  100166:	55                   	push   %ebp
  100167:	89 e5                	mov    %esp,%ebp
  100169:	8b 45 0c             	mov    0xc(%ebp),%eax
  10016c:	c1 e0 04             	shl    $0x4,%eax
  10016f:	89 c2                	mov    %eax,%edx
  100171:	8b 45 08             	mov    0x8(%ebp),%eax
  100174:	09 d0                	or     %edx,%eax
  100176:	5d                   	pop    %ebp
  100177:	c3                   	ret    

00100178 <vga_entry>:
  100178:	55                   	push   %ebp
  100179:	89 e5                	mov    %esp,%ebp
  10017b:	83 ec 08             	sub    $0x8,%esp
  10017e:	8b 55 08             	mov    0x8(%ebp),%edx
  100181:	8b 45 0c             	mov    0xc(%ebp),%eax
  100184:	88 55 fc             	mov    %dl,-0x4(%ebp)
  100187:	88 45 f8             	mov    %al,-0x8(%ebp)
  10018a:	0f b6 55 fc          	movzbl -0x4(%ebp),%edx
  10018e:	0f b6 45 f8          	movzbl -0x8(%ebp),%eax
  100192:	c1 e0 08             	shl    $0x8,%eax
  100195:	09 d0                	or     %edx,%eax
  100197:	c9                   	leave  
  100198:	c3                   	ret    

00100199 <tty_init>:
  100199:	55                   	push   %ebp
  10019a:	89 e5                	mov    %esp,%ebp
  10019c:	53                   	push   %ebx
  10019d:	83 ec 14             	sub    $0x14,%esp
  1001a0:	c7 05 20 00 11 00 00 	movl   $0x0,0x110020
  1001a7:	00 00 00 
  1001aa:	c7 05 24 00 11 00 00 	movl   $0x0,0x110024
  1001b1:	00 00 00 
  1001b4:	83 ec 08             	sub    $0x8,%esp
  1001b7:	6a 00                	push   $0x0
  1001b9:	6a 07                	push   $0x7
  1001bb:	e8 a6 ff ff ff       	call   100166 <vga_entry_color>
  1001c0:	83 c4 10             	add    $0x10,%esp
  1001c3:	a2 28 00 11 00       	mov    %al,0x110028
  1001c8:	b8 00 80 0b 00       	mov    $0xb8000,%eax
  1001cd:	a3 2c 00 11 00       	mov    %eax,0x11002c
  1001d2:	c7 05 30 00 11 00 08 	movl   $0x8,0x110030
  1001d9:	00 00 00 
  1001dc:	b8 50 00 00 00       	mov    $0x50,%eax
  1001e1:	8b 0d 30 00 11 00    	mov    0x110030,%ecx
  1001e7:	ba 00 00 00 00       	mov    $0x0,%edx
  1001ec:	f7 f1                	div    %ecx
  1001ee:	a3 34 00 11 00       	mov    %eax,0x110034
  1001f3:	c7 45 f4 00 00 00 00 	movl   $0x0,-0xc(%ebp)
  1001fa:	eb 57                	jmp    100253 <tty_init+0xba>
  1001fc:	c7 45 f0 00 00 00 00 	movl   $0x0,-0x10(%ebp)
  100203:	eb 40                	jmp    100245 <tty_init+0xac>
  100205:	b8 50 00 00 00       	mov    $0x50,%eax
  10020a:	0f af 45 f4          	imul   -0xc(%ebp),%eax
  10020e:	89 c2                	mov    %eax,%edx
  100210:	8b 45 f0             	mov    -0x10(%ebp),%eax
  100213:	01 d0                	add    %edx,%eax
  100215:	89 45 ec             	mov    %eax,-0x14(%ebp)
  100218:	0f b6 05 28 00 11 00 	movzbl 0x110028,%eax
  10021f:	0f b6 c0             	movzbl %al,%eax
  100222:	8b 0d 2c 00 11 00    	mov    0x11002c,%ecx
  100228:	8b 55 ec             	mov    -0x14(%ebp),%edx
  10022b:	01 d2                	add    %edx,%edx
  10022d:	8d 1c 11             	lea    (%ecx,%edx,1),%ebx
  100230:	83 ec 08             	sub    $0x8,%esp
  100233:	50                   	push   %eax
  100234:	6a 20                	push   $0x20
  100236:	e8 3d ff ff ff       	call   100178 <vga_entry>
  10023b:	83 c4 10             	add    $0x10,%esp
  10023e:	66 89 03             	mov    %ax,(%ebx)
  100241:	83 45 f0 01          	addl   $0x1,-0x10(%ebp)
  100245:	b8 50 00 00 00       	mov    $0x50,%eax
  10024a:	39 45 f0             	cmp    %eax,-0x10(%ebp)
  10024d:	72 b6                	jb     100205 <tty_init+0x6c>
  10024f:	83 45 f4 01          	addl   $0x1,-0xc(%ebp)
  100253:	b8 19 00 00 00       	mov    $0x19,%eax
  100258:	39 45 f4             	cmp    %eax,-0xc(%ebp)
  10025b:	72 9f                	jb     1001fc <tty_init+0x63>
  10025d:	90                   	nop
  10025e:	90                   	nop
  10025f:	8b 5d fc             	mov    -0x4(%ebp),%ebx
  100262:	c9                   	leave  
  100263:	c3                   	ret    

00100264 <tty_set_color>:
  100264:	55                   	push   %ebp
  100265:	89 e5                	mov    %esp,%ebp
  100267:	83 ec 08             	sub    $0x8,%esp
  10026a:	83 ec 08             	sub    $0x8,%esp
  10026d:	ff 75 0c             	push   0xc(%ebp)
  100270:	ff 75 08             	push   0x8(%ebp)
  100273:	e8 ee fe ff ff       	call   100166 <vga_entry_color>
  100278:	83 c4 10             	add    $0x10,%esp
  10027b:	a2 28 00 11 00       	mov    %al,0x110028
  100280:	90                   	nop
  100281:	c9                   	leave  
  100282:	c3                   	ret    

00100283 <tty_scroll>:
  100283:	55                   	push   %ebp
  100284:	89 e5                	mov    %esp,%ebp
  100286:	53                   	push   %ebx
  100287:	83 ec 24             	sub    $0x24,%esp
  10028a:	c7 45 f4 00 00 00 00 	movl   $0x0,-0xc(%ebp)
  100291:	eb 62                	jmp    1002f5 <tty_scroll+0x72>
  100293:	b8 50 00 00 00       	mov    $0x50,%eax
  100298:	0f af 45 f4          	imul   -0xc(%ebp),%eax
  10029c:	89 45 e8             	mov    %eax,-0x18(%ebp)
  10029f:	8b 45 f4             	mov    -0xc(%ebp),%eax
  1002a2:	83 c0 01             	add    $0x1,%eax
  1002a5:	ba 50 00 00 00       	mov    $0x50,%edx
  1002aa:	0f af c2             	imul   %edx,%eax
  1002ad:	89 45 e4             	mov    %eax,-0x1c(%ebp)
  1002b0:	c7 45 f0 00 00 00 00 	movl   $0x0,-0x10(%ebp)
  1002b7:	eb 2e                	jmp    1002e7 <tty_scroll+0x64>
  1002b9:	8b 15 2c 00 11 00    	mov    0x11002c,%edx
  1002bf:	8b 4d e4             	mov    -0x1c(%ebp),%ecx
  1002c2:	8b 45 f0             	mov    -0x10(%ebp),%eax
  1002c5:	01 c8                	add    %ecx,%eax
  1002c7:	01 c0                	add    %eax,%eax
  1002c9:	01 d0                	add    %edx,%eax
  1002cb:	8b 0d 2c 00 11 00    	mov    0x11002c,%ecx
  1002d1:	8b 5d e8             	mov    -0x18(%ebp),%ebx
  1002d4:	8b 55 f0             	mov    -0x10(%ebp),%edx
  1002d7:	01 da                	add    %ebx,%edx
  1002d9:	01 d2                	add    %edx,%edx
  1002db:	01 ca                	add    %ecx,%edx
  1002dd:	0f b7 00             	movzwl (%eax),%eax
  1002e0:	66 89 02             	mov    %ax,(%edx)
  1002e3:	83 45 f0 01          	addl   $0x1,-0x10(%ebp)
  1002e7:	b8 50 00 00 00       	mov    $0x50,%eax
  1002ec:	39 45 f0             	cmp    %eax,-0x10(%ebp)
  1002ef:	72 c8                	jb     1002b9 <tty_scroll+0x36>
  1002f1:	83 45 f4 01          	addl   $0x1,-0xc(%ebp)
  1002f5:	b8 19 00 00 00       	mov    $0x19,%eax
  1002fa:	83 e8 01             	sub    $0x1,%eax
  1002fd:	39 45 f4             	cmp    %eax,-0xc(%ebp)
  100300:	72 91                	jb     100293 <tty_scroll+0x10>
  100302:	c7 45 ec 00 00 00 00 	movl   $0x0,-0x14(%ebp)
  100309:	eb 3f                	jmp    10034a <tty_scroll+0xc7>
  10030b:	0f b6 05 28 00 11 00 	movzbl 0x110028,%eax
  100312:	0f b6 c0             	movzbl %al,%eax
  100315:	8b 0d 2c 00 11 00    	mov    0x11002c,%ecx
  10031b:	ba 19 00 00 00       	mov    $0x19,%edx
  100320:	83 ea 01             	sub    $0x1,%edx
  100323:	bb 50 00 00 00       	mov    $0x50,%ebx
  100328:	0f af da             	imul   %edx,%ebx
  10032b:	8b 55 ec             	mov    -0x14(%ebp),%edx
  10032e:	01 da                	add    %ebx,%edx
  100330:	01 d2                	add    %edx,%edx
  100332:	8d 1c 11             	lea    (%ecx,%edx,1),%ebx
  100335:	83 ec 08             	sub    $0x8,%esp
  100338:	50                   	push   %eax
  100339:	6a 20                	push   $0x20
  10033b:	e8 38 fe ff ff       	call   100178 <vga_entry>
  100340:	83 c4 10             	add    $0x10,%esp
  100343:	66 89 03             	mov    %ax,(%ebx)
  100346:	83 45 ec 01          	addl   $0x1,-0x14(%ebp)
  10034a:	b8 50 00 00 00       	mov    $0x50,%eax
  10034f:	39 45 ec             	cmp    %eax,-0x14(%ebp)
  100352:	72 b7                	jb     10030b <tty_scroll+0x88>
  100354:	90                   	nop
  100355:	90                   	nop
  100356:	8b 5d fc             	mov    -0x4(%ebp),%ebx
  100359:	c9                   	leave  
  10035a:	c3                   	ret    

0010035b <tty_putchar>:
  10035b:	55                   	push   %ebp
  10035c:	89 e5                	mov    %esp,%ebp
  10035e:	53                   	push   %ebx
  10035f:	83 ec 24             	sub    $0x24,%esp
  100362:	8b 45 08             	mov    0x8(%ebp),%eax
  100365:	88 45 e4             	mov    %al,-0x1c(%ebp)
  100368:	80 7d e4 0a          	cmpb   $0xa,-0x1c(%ebp)
  10036c:	75 40                	jne    1003ae <tty_putchar+0x53>
  10036e:	c7 05 24 00 11 00 00 	movl   $0x0,0x110024
  100375:	00 00 00 
  100378:	a1 20 00 11 00       	mov    0x110020,%eax
  10037d:	83 c0 01             	add    $0x1,%eax
  100380:	a3 20 00 11 00       	mov    %eax,0x110020
  100385:	ba 19 00 00 00       	mov    $0x19,%edx
  10038a:	a1 20 00 11 00       	mov    0x110020,%eax
  10038f:	39 c2                	cmp    %eax,%edx
  100391:	0f 85 71 01 00 00    	jne    100508 <tty_putchar+0x1ad>
  100397:	e8 e7 fe ff ff       	call   100283 <tty_scroll>
  10039c:	b8 19 00 00 00       	mov    $0x19,%eax
  1003a1:	83 e8 01             	sub    $0x1,%eax
  1003a4:	a3 20 00 11 00       	mov    %eax,0x110020
  1003a9:	e9 5a 01 00 00       	jmp    100508 <tty_putchar+0x1ad>
  1003ae:	80 7d e4 0d          	cmpb   $0xd,-0x1c(%ebp)
  1003b2:	75 0f                	jne    1003c3 <tty_putchar+0x68>
  1003b4:	c7 05 24 00 11 00 00 	movl   $0x0,0x110024
  1003bb:	00 00 00 
  1003be:	e9 45 01 00 00       	jmp    100508 <tty_putchar+0x1ad>
  1003c3:	80 7d e4 09          	cmpb   $0x9,-0x1c(%ebp)
  1003c7:	75 2d                	jne    1003f6 <tty_putchar+0x9b>
  1003c9:	a1 24 00 11 00       	mov    0x110024,%eax
  1003ce:	8b 0d 34 00 11 00    	mov    0x110034,%ecx
  1003d4:	ba 00 00 00 00       	mov    $0x0,%edx
  1003d9:	f7 f1                	div    %ecx
  1003db:	89 45 ec             	mov    %eax,-0x14(%ebp)
  1003de:	8b 45 ec             	mov    -0x14(%ebp),%eax
  1003e1:	8d 50 01             	lea    0x1(%eax),%edx
  1003e4:	a1 34 00 11 00       	mov    0x110034,%eax
  1003e9:	0f af c2             	imul   %edx,%eax
  1003ec:	a3 24 00 11 00       	mov    %eax,0x110024
  1003f1:	e9 12 01 00 00       	jmp    100508 <tty_putchar+0x1ad>
  1003f6:	80 7d e4 08          	cmpb   $0x8,-0x1c(%ebp)
  1003fa:	75 75                	jne    100471 <tty_putchar+0x116>
  1003fc:	a1 24 00 11 00       	mov    0x110024,%eax
  100401:	85 c0                	test   %eax,%eax
  100403:	75 31                	jne    100436 <tty_putchar+0xdb>
  100405:	a1 20 00 11 00       	mov    0x110020,%eax
  10040a:	85 c0                	test   %eax,%eax
  10040c:	75 0c                	jne    10041a <tty_putchar+0xbf>
  10040e:	c7 05 20 00 11 00 00 	movl   $0x0,0x110020
  100415:	00 00 00 
  100418:	eb 0d                	jmp    100427 <tty_putchar+0xcc>
  10041a:	a1 20 00 11 00       	mov    0x110020,%eax
  10041f:	83 e8 01             	sub    $0x1,%eax
  100422:	a3 20 00 11 00       	mov    %eax,0x110020
  100427:	b8 50 00 00 00       	mov    $0x50,%eax
  10042c:	83 e8 01             	sub    $0x1,%eax
  10042f:	a3 24 00 11 00       	mov    %eax,0x110024
  100434:	eb 0d                	jmp    100443 <tty_putchar+0xe8>
  100436:	a1 24 00 11 00       	mov    0x110024,%eax
  10043b:	83 e8 01             	sub    $0x1,%eax
  10043e:	a3 24 00 11 00       	mov    %eax,0x110024
  100443:	a1 20 00 11 00       	mov    0x110020,%eax
  100448:	ba 50 00 00 00       	mov    $0x50,%edx
  10044d:	0f af d0             	imul   %eax,%edx
  100450:	a1 24 00 11 00       	mov    0x110024,%eax
  100455:	01 d0                	add    %edx,%eax
  100457:	89 45 f0             	mov    %eax,-0x10(%ebp)
  10045a:	8b 15 2c 00 11 00    	mov    0x11002c,%edx
  100460:	8b 45 f0             	mov    -0x10(%ebp),%eax
  100463:	01 c0                	add    %eax,%eax
  100465:	01 d0                	add    %edx,%eax
  100467:	66 c7 00 20 00       	movw   $0x20,(%eax)
  10046c:	e9 97 00 00 00       	jmp    100508 <tty_putchar+0x1ad>
  100471:	a1 20 00 11 00       	mov    0x110020,%eax
  100476:	ba 50 00 00 00       	mov    $0x50,%edx
  10047b:	0f af d0             	imul   %eax,%edx
  10047e:	a1 24 00 11 00       	mov    0x110024,%eax
  100483:	01 d0                	add    %edx,%eax
  100485:	89 45 f4             	mov    %eax,-0xc(%ebp)
  100488:	0f b6 05 28 00 11 00 	movzbl 0x110028,%eax
  10048f:	0f b6 d0             	movzbl %al,%edx
  100492:	0f b6 45 e4          	movzbl -0x1c(%ebp),%eax
  100496:	0f b6 c0             	movzbl %al,%eax
  100499:	8b 1d 2c 00 11 00    	mov    0x11002c,%ebx
  10049f:	8b 4d f4             	mov    -0xc(%ebp),%ecx
  1004a2:	01 c9                	add    %ecx,%ecx
  1004a4:	01 cb                	add    %ecx,%ebx
  1004a6:	83 ec 08             	sub    $0x8,%esp
  1004a9:	52                   	push   %edx
  1004aa:	50                   	push   %eax
  1004ab:	e8 c8 fc ff ff       	call   100178 <vga_entry>
  1004b0:	83 c4 10             	add    $0x10,%esp
  1004b3:	66 89 03             	mov    %ax,(%ebx)
  1004b6:	a1 24 00 11 00       	mov    0x110024,%eax
  1004bb:	83 c0 01             	add    $0x1,%eax
  1004be:	a3 24 00 11 00       	mov    %eax,0x110024
  1004c3:	a1 24 00 11 00       	mov    0x110024,%eax
  1004c8:	ba 50 00 00 00       	mov    $0x50,%edx
  1004cd:	39 d0                	cmp    %edx,%eax
  1004cf:	75 37                	jne    100508 <tty_putchar+0x1ad>
  1004d1:	c7 05 24 00 11 00 00 	movl   $0x0,0x110024
  1004d8:	00 00 00 
  1004db:	a1 20 00 11 00       	mov    0x110020,%eax
  1004e0:	83 c0 01             	add    $0x1,%eax
  1004e3:	a3 20 00 11 00       	mov    %eax,0x110020
  1004e8:	a1 20 00 11 00       	mov    0x110020,%eax
  1004ed:	ba 19 00 00 00       	mov    $0x19,%edx
  1004f2:	39 d0                	cmp    %edx,%eax
  1004f4:	75 12                	jne    100508 <tty_putchar+0x1ad>
  1004f6:	b8 19 00 00 00       	mov    $0x19,%eax
  1004fb:	83 e8 01             	sub    $0x1,%eax
  1004fe:	a3 20 00 11 00       	mov    %eax,0x110020
  100503:	e8 7b fd ff ff       	call   100283 <tty_scroll>
  100508:	e8 17 01 00 00       	call   100624 <tty_update_cursor_position>
  10050d:	90                   	nop
  10050e:	8b 5d fc             	mov    -0x4(%ebp),%ebx
  100511:	c9                   	leave  
  100512:	c3                   	ret    

00100513 <tty_putchars>:
  100513:	55                   	push   %ebp
  100514:	89 e5                	mov    %esp,%ebp
  100516:	83 ec 18             	sub    $0x18,%esp
  100519:	c7 45 f4 00 00 00 00 	movl   $0x0,-0xc(%ebp)
  100520:	eb 1e                	jmp    100540 <tty_putchars+0x2d>
  100522:	8b 55 08             	mov    0x8(%ebp),%edx
  100525:	8b 45 f4             	mov    -0xc(%ebp),%eax
  100528:	01 d0                	add    %edx,%eax
  10052a:	0f b6 00             	movzbl (%eax),%eax
  10052d:	0f be c0             	movsbl %al,%eax
  100530:	83 ec 0c             	sub    $0xc,%esp
  100533:	50                   	push   %eax
  100534:	e8 22 fe ff ff       	call   10035b <tty_putchar>
  100539:	83 c4 10             	add    $0x10,%esp
  10053c:	83 45 f4 01          	addl   $0x1,-0xc(%ebp)
  100540:	8b 45 f4             	mov    -0xc(%ebp),%eax
  100543:	3b 45 0c             	cmp    0xc(%ebp),%eax
  100546:	72 da                	jb     100522 <tty_putchars+0xf>
  100548:	90                   	nop
  100549:	90                   	nop
  10054a:	c9                   	leave  
  10054b:	c3                   	ret    

0010054c <tty_putstring>:
  10054c:	55                   	push   %ebp
  10054d:	89 e5                	mov    %esp,%ebp
  10054f:	83 ec 08             	sub    $0x8,%esp
  100552:	83 ec 0c             	sub    $0xc,%esp
  100555:	ff 75 08             	push   0x8(%ebp)
  100558:	e8 01 89 00 00       	call   108e5e <strlen>
  10055d:	83 c4 10             	add    $0x10,%esp
  100560:	83 ec 08             	sub    $0x8,%esp
  100563:	50                   	push   %eax
  100564:	ff 75 08             	push   0x8(%ebp)
  100567:	e8 a7 ff ff ff       	call   100513 <tty_putchars>
  10056c:	83 c4 10             	add    $0x10,%esp
  10056f:	90                   	nop
  100570:	c9                   	leave  
  100571:	c3                   	ret    

00100572 <tty_row_up>:
  100572:	55                   	push   %ebp
  100573:	89 e5                	mov    %esp,%ebp
  100575:	83 ec 08             	sub    $0x8,%esp
  100578:	a1 20 00 11 00       	mov    0x110020,%eax
  10057d:	85 c0                	test   %eax,%eax
  10057f:	74 0d                	je     10058e <tty_row_up+0x1c>
  100581:	a1 20 00 11 00       	mov    0x110020,%eax
  100586:	83 e8 01             	sub    $0x1,%eax
  100589:	a3 20 00 11 00       	mov    %eax,0x110020
  10058e:	e8 91 00 00 00       	call   100624 <tty_update_cursor_position>
  100593:	90                   	nop
  100594:	c9                   	leave  
  100595:	c3                   	ret    

00100596 <tty_row_down>:
  100596:	55                   	push   %ebp
  100597:	89 e5                	mov    %esp,%ebp
  100599:	83 ec 08             	sub    $0x8,%esp
  10059c:	a1 20 00 11 00       	mov    0x110020,%eax
  1005a1:	ba 19 00 00 00       	mov    $0x19,%edx
  1005a6:	39 d0                	cmp    %edx,%eax
  1005a8:	73 0d                	jae    1005b7 <tty_row_down+0x21>
  1005aa:	a1 20 00 11 00       	mov    0x110020,%eax
  1005af:	83 c0 01             	add    $0x1,%eax
  1005b2:	a3 20 00 11 00       	mov    %eax,0x110020
  1005b7:	e8 68 00 00 00       	call   100624 <tty_update_cursor_position>
  1005bc:	90                   	nop
  1005bd:	c9                   	leave  
  1005be:	c3                   	ret    

001005bf <tty_column_right>:
  1005bf:	55                   	push   %ebp
  1005c0:	89 e5                	mov    %esp,%ebp
  1005c2:	83 ec 08             	sub    $0x8,%esp
  1005c5:	a1 24 00 11 00       	mov    0x110024,%eax
  1005ca:	ba 50 00 00 00       	mov    $0x50,%edx
  1005cf:	39 d0                	cmp    %edx,%eax
  1005d1:	73 0d                	jae    1005e0 <tty_column_right+0x21>
  1005d3:	a1 24 00 11 00       	mov    0x110024,%eax
  1005d8:	83 c0 01             	add    $0x1,%eax
  1005db:	a3 24 00 11 00       	mov    %eax,0x110024
  1005e0:	e8 3f 00 00 00       	call   100624 <tty_update_cursor_position>
  1005e5:	90                   	nop
  1005e6:	c9                   	leave  
  1005e7:	c3                   	ret    

001005e8 <tty_column_left>:
  1005e8:	55                   	push   %ebp
  1005e9:	89 e5                	mov    %esp,%ebp
  1005eb:	83 ec 08             	sub    $0x8,%esp
  1005ee:	a1 24 00 11 00       	mov    0x110024,%eax
  1005f3:	85 c0                	test   %eax,%eax
  1005f5:	74 0d                	je     100604 <tty_column_left+0x1c>
  1005f7:	a1 24 00 11 00       	mov    0x110024,%eax
  1005fc:	83 e8 01             	sub    $0x1,%eax
  1005ff:	a3 24 00 11 00       	mov    %eax,0x110024
  100604:	e8 1b 00 00 00       	call   100624 <tty_update_cursor_position>
  100609:	90                   	nop
  10060a:	c9                   	leave  
  10060b:	c3                   	ret    

0010060c <tty_reset_column>:
  10060c:	55                   	push   %ebp
  10060d:	89 e5                	mov    %esp,%ebp
  10060f:	83 ec 08             	sub    $0x8,%esp
  100612:	c7 05 24 00 11 00 00 	movl   $0x0,0x110024
  100619:	00 00 00 
  10061c:	e8 03 00 00 00       	call   100624 <tty_update_cursor_position>
  100621:	90                   	nop
  100622:	c9                   	leave  
  100623:	c3                   	ret    

00100624 <tty_update_cursor_position>:
  100624:	55                   	push   %ebp
  100625:	89 e5                	mov    %esp,%ebp
  100627:	83 ec 18             	sub    $0x18,%esp
  10062a:	a1 20 00 11 00       	mov    0x110020,%eax
  10062f:	ba 50 00 00 00       	mov    $0x50,%edx
  100634:	0f af d0             	imul   %eax,%edx
  100637:	a1 24 00 11 00       	mov    0x110024,%eax
  10063c:	01 d0                	add    %edx,%eax
  10063e:	89 45 f4             	mov    %eax,-0xc(%ebp)
  100641:	83 ec 08             	sub    $0x8,%esp
  100644:	6a 0f                	push   $0xf
  100646:	68 d4 03 00 00       	push   $0x3d4
  10064b:	e8 70 00 00 00       	call   1006c0 <outb>
  100650:	83 c4 10             	add    $0x10,%esp
  100653:	8b 45 f4             	mov    -0xc(%ebp),%eax
  100656:	0f b6 c0             	movzbl %al,%eax
  100659:	83 ec 08             	sub    $0x8,%esp
  10065c:	50                   	push   %eax
  10065d:	68 d5 03 00 00       	push   $0x3d5
  100662:	e8 59 00 00 00       	call   1006c0 <outb>
  100667:	83 c4 10             	add    $0x10,%esp
  10066a:	83 ec 08             	sub    $0x8,%esp
  10066d:	6a 0e                	push   $0xe
  10066f:	68 d4 03 00 00       	push   $0x3d4
  100674:	e8 47 00 00 00       	call   1006c0 <outb>
  100679:	83 c4 10             	add    $0x10,%esp
  10067c:	8b 45 f4             	mov    -0xc(%ebp),%eax
  10067f:	c1 e8 08             	shr    $0x8,%eax
  100682:	0f b6 c0             	movzbl %al,%eax
  100685:	83 ec 08             	sub    $0x8,%esp
  100688:	50                   	push   %eax
  100689:	68 d5 03 00 00       	push   $0x3d5
  10068e:	e8 2d 00 00 00       	call   1006c0 <outb>
  100693:	83 c4 10             	add    $0x10,%esp
  100696:	90                   	nop
  100697:	c9                   	leave  
  100698:	c3                   	ret    

00100699 <cli>:
  100699:	55                   	push   %ebp
  10069a:	89 e5                	mov    %esp,%ebp
  10069c:	fa                   	cli    
  10069d:	90                   	nop
  10069e:	5d                   	pop    %ebp
  10069f:	c3                   	ret    

001006a0 <sti>:
  1006a0:	55                   	push   %ebp
  1006a1:	89 e5                	mov    %esp,%ebp
  1006a3:	fb                   	sti    
  1006a4:	90                   	nop
  1006a5:	5d                   	pop    %ebp
  1006a6:	c3                   	ret    

001006a7 <inb>:
  1006a7:	55                   	push   %ebp
  1006a8:	89 e5                	mov    %esp,%ebp
  1006aa:	83 ec 10             	sub    $0x10,%esp
  1006ad:	c6 45 ff 00          	movb   $0x0,-0x1(%ebp)
  1006b1:	8b 45 08             	mov    0x8(%ebp),%eax
  1006b4:	89 c2                	mov    %eax,%edx
  1006b6:	ec                   	in     (%dx),%al
  1006b7:	88 45 ff             	mov    %al,-0x1(%ebp)
  1006ba:	0f b6 45 ff          	movzbl -0x1(%ebp),%eax
  1006be:	c9                   	leave  
  1006bf:	c3                   	ret    

001006c0 <outb>:
  1006c0:	55                   	push   %ebp
  1006c1:	89 e5                	mov    %esp,%ebp
  1006c3:	8b 45 0c             	mov    0xc(%ebp),%eax
  1006c6:	8b 55 08             	mov    0x8(%ebp),%edx
  1006c9:	ee                   	out    %al,(%dx)
  1006ca:	90                   	nop
  1006cb:	5d                   	pop    %ebp
  1006cc:	c3                   	ret    

001006cd <inw>:
  1006cd:	55                   	push   %ebp
  1006ce:	89 e5                	mov    %esp,%ebp
  1006d0:	83 ec 10             	sub    $0x10,%esp
  1006d3:	66 c7 45 fe 00 00    	movw   $0x0,-0x2(%ebp)
  1006d9:	8b 45 08             	mov    0x8(%ebp),%eax
  1006dc:	89 c2                	mov    %eax,%edx
  1006de:	66 ed                	in     (%dx),%ax
  1006e0:	66 89 45 fe          	mov    %ax,-0x2(%ebp)
  1006e4:	0f b7 45 fe          	movzwl -0x2(%ebp),%eax
  1006e8:	c9                   	leave  
  1006e9:	c3                   	ret    

001006ea <outw>:
  1006ea:	55                   	push   %ebp
  1006eb:	89 e5                	mov    %esp,%ebp
  1006ed:	8b 45 0c             	mov    0xc(%ebp),%eax
  1006f0:	8b 55 08             	mov    0x8(%ebp),%edx
  1006f3:	66 ef                	out    %ax,(%dx)
  1006f5:	90                   	nop
  1006f6:	5d                   	pop    %ebp
  1006f7:	c3                   	ret    

001006f8 <inl>:
  1006f8:	55                   	push   %ebp
  1006f9:	89 e5                	mov    %esp,%ebp
  1006fb:	83 ec 10             	sub    $0x10,%esp
  1006fe:	c7 45 fc 00 00 00 00 	movl   $0x0,-0x4(%ebp)
  100705:	8b 45 08             	mov    0x8(%ebp),%eax
  100708:	89 c2                	mov    %eax,%edx
  10070a:	ed                   	in     (%dx),%eax
  10070b:	89 45 fc             	mov    %eax,-0x4(%ebp)
  10070e:	8b 45 fc             	mov    -0x4(%ebp),%eax
  100711:	c9                   	leave  
  100712:	c3                   	ret    

00100713 <outl>:
  100713:	55                   	push   %ebp
  100714:	89 e5                	mov    %esp,%ebp
  100716:	8b 45 0c             	mov    0xc(%ebp),%eax
  100719:	8b 55 08             	mov    0x8(%ebp),%edx
  10071c:	ef                   	out    %eax,(%dx)
  10071d:	90                   	nop
  10071e:	5d                   	pop    %ebp
  10071f:	c3                   	ret    

00100720 <gdt_init>:
  100720:	55                   	push   %ebp
  100721:	89 e5                	mov    %esp,%ebp
  100723:	83 ec 18             	sub    $0x18,%esp
  100726:	c7 45 f4 00 00 00 00 	movl   $0x0,-0xc(%ebp)
  10072d:	eb 1f                	jmp    10074e <gdt_init+0x2e>
  10072f:	8b 45 f4             	mov    -0xc(%ebp),%eax
  100732:	c1 e0 03             	shl    $0x3,%eax
  100735:	05 40 00 11 00       	add    $0x110040,%eax
  10073a:	83 ec 04             	sub    $0x4,%esp
  10073d:	6a 08                	push   $0x8
  10073f:	6a 00                	push   $0x0
  100741:	50                   	push   %eax
  100742:	e8 e4 86 00 00       	call   108e2b <memset>
  100747:	83 c4 10             	add    $0x10,%esp
  10074a:	83 45 f4 01          	addl   $0x1,-0xc(%ebp)
  10074e:	83 7d f4 09          	cmpl   $0x9,-0xc(%ebp)
  100752:	7e db                	jle    10072f <gdt_init+0xf>
  100754:	83 ec 0c             	sub    $0xc,%esp
  100757:	6a 00                	push   $0x0
  100759:	6a 00                	push   $0x0
  10075b:	6a 00                	push   $0x0
  10075d:	6a 00                	push   $0x0
  10075f:	6a 00                	push   $0x0
  100761:	e8 58 00 00 00       	call   1007be <gdt_add_entry>
  100766:	83 c4 20             	add    $0x20,%esp
  100769:	83 ec 0c             	sub    $0xc,%esp
  10076c:	68 c0 00 00 00       	push   $0xc0
  100771:	68 9a 00 00 00       	push   $0x9a
  100776:	68 ff ff 0f 00       	push   $0xfffff
  10077b:	6a 00                	push   $0x0
  10077d:	6a 01                	push   $0x1
  10077f:	e8 3a 00 00 00       	call   1007be <gdt_add_entry>
  100784:	83 c4 20             	add    $0x20,%esp
  100787:	83 ec 0c             	sub    $0xc,%esp
  10078a:	68 c0 00 00 00       	push   $0xc0
  10078f:	68 92 00 00 00       	push   $0x92
  100794:	68 ff ff 0f 00       	push   $0xfffff
  100799:	6a 00                	push   $0x0
  10079b:	6a 02                	push   $0x2
  10079d:	e8 1c 00 00 00       	call   1007be <gdt_add_entry>
  1007a2:	83 c4 20             	add    $0x20,%esp
  1007a5:	6a 02                	push   $0x2
  1007a7:	6a 01                	push   $0x1
  1007a9:	68 ff ff 00 00       	push   $0xffff
  1007ae:	68 40 00 11 00       	push   $0x110040
  1007b3:	e8 8a 00 00 00       	call   100842 <store_gdt>
  1007b8:	83 c4 10             	add    $0x10,%esp
  1007bb:	90                   	nop
  1007bc:	c9                   	leave  
  1007bd:	c3                   	ret    

001007be <gdt_add_entry>:
  1007be:	55                   	push   %ebp
  1007bf:	89 e5                	mov    %esp,%ebp
  1007c1:	83 ec 08             	sub    $0x8,%esp
  1007c4:	8b 55 14             	mov    0x14(%ebp),%edx
  1007c7:	8b 45 18             	mov    0x18(%ebp),%eax
  1007ca:	88 55 fc             	mov    %dl,-0x4(%ebp)
  1007cd:	88 45 f8             	mov    %al,-0x8(%ebp)
  1007d0:	8b 45 10             	mov    0x10(%ebp),%eax
  1007d3:	89 c2                	mov    %eax,%edx
  1007d5:	8b 45 08             	mov    0x8(%ebp),%eax
  1007d8:	66 89 14 c5 40 00 11 	mov    %dx,0x110040(,%eax,8)
  1007df:	00 
  1007e0:	8b 45 0c             	mov    0xc(%ebp),%eax
  1007e3:	89 c2                	mov    %eax,%edx
  1007e5:	8b 45 08             	mov    0x8(%ebp),%eax
  1007e8:	66 89 14 c5 42 00 11 	mov    %dx,0x110042(,%eax,8)
  1007ef:	00 
  1007f0:	8b 45 0c             	mov    0xc(%ebp),%eax
  1007f3:	c1 e8 10             	shr    $0x10,%eax
  1007f6:	89 c2                	mov    %eax,%edx
  1007f8:	8b 45 08             	mov    0x8(%ebp),%eax
  1007fb:	88 14 c5 44 00 11 00 	mov    %dl,0x110044(,%eax,8)
  100802:	8b 45 08             	mov    0x8(%ebp),%eax
  100805:	0f b6 55 fc          	movzbl -0x4(%ebp),%edx
  100809:	88 14 c5 45 00 11 00 	mov    %dl,0x110045(,%eax,8)
  100810:	8b 45 10             	mov    0x10(%ebp),%eax
  100813:	c1 e8 10             	shr    $0x10,%eax
  100816:	83 e0 0f             	and    $0xf,%eax
  100819:	89 c2                	mov    %eax,%edx
  10081b:	0f b6 45 f8          	movzbl -0x8(%ebp),%eax
  10081f:	09 d0                	or     %edx,%eax
  100821:	89 c2                	mov    %eax,%edx
  100823:	8b 45 08             	mov    0x8(%ebp),%eax
  100826:	88 14 c5 46 00 11 00 	mov    %dl,0x110046(,%eax,8)
  10082d:	8b 45 0c             	mov    0xc(%ebp),%eax
  100830:	c1 e8 18             	shr    $0x18,%eax
  100833:	89 c2                	mov    %eax,%edx
  100835:	8b 45 08             	mov    0x8(%ebp),%eax
  100838:	88 14 c5 47 00 11 00 	mov    %dl,0x110047(,%eax,8)
  10083f:	90                   	nop
  100840:	c9                   	leave  
  100841:	c3                   	ret    

00100842 <store_gdt>:
  100842:	55                   	push   %ebp
  100843:	89 e5                	mov    %esp,%ebp
  100845:	83 ec 14             	sub    $0x14,%esp
  100848:	8b 45 0c             	mov    0xc(%ebp),%eax
  10084b:	66 89 45 ec          	mov    %ax,-0x14(%ebp)
  10084f:	0f b7 45 ec          	movzwl -0x14(%ebp),%eax
  100853:	66 89 45 fa          	mov    %ax,-0x6(%ebp)
  100857:	8b 45 08             	mov    0x8(%ebp),%eax
  10085a:	89 45 fc             	mov    %eax,-0x4(%ebp)
  10085d:	c1 65 10 03          	shll   $0x3,0x10(%ebp)
  100861:	c1 65 14 03          	shll   $0x3,0x14(%ebp)
  100865:	8b 45 10             	mov    0x10(%ebp),%eax
  100868:	8b 55 14             	mov    0x14(%ebp),%edx
  10086b:	0f 01 55 fa          	lgdtl  -0x6(%ebp)
  10086f:	50                   	push   %eax
  100870:	68 76 08 10 00       	push   $0x100876
  100875:	cb                   	lret   

00100876 <CSpoint>:
  100876:	89 d0                	mov    %edx,%eax
  100878:	8e d8                	mov    %eax,%ds
  10087a:	8e c0                	mov    %eax,%es
  10087c:	8e e0                	mov    %eax,%fs
  10087e:	8e e8                	mov    %eax,%gs
  100880:	8e d0                	mov    %eax,%ss
  100882:	90                   	nop
  100883:	c9                   	leave  
  100884:	c3                   	ret    

00100885 <idt_init>:
  100885:	55                   	push   %ebp
  100886:	89 e5                	mov    %esp,%ebp
  100888:	83 ec 18             	sub    $0x18,%esp
  10088b:	c7 45 f4 00 00 00 00 	movl   $0x0,-0xc(%ebp)
  100892:	eb 1f                	jmp    1008b3 <idt_init+0x2e>
  100894:	8b 45 f4             	mov    -0xc(%ebp),%eax
  100897:	c1 e0 03             	shl    $0x3,%eax
  10089a:	05 90 00 11 00       	add    $0x110090,%eax
  10089f:	83 ec 04             	sub    $0x4,%esp
  1008a2:	6a 08                	push   $0x8
  1008a4:	6a 00                	push   $0x0
  1008a6:	50                   	push   %eax
  1008a7:	e8 7f 85 00 00       	call   108e2b <memset>
  1008ac:	83 c4 10             	add    $0x10,%esp
  1008af:	83 45 f4 01          	addl   $0x1,-0xc(%ebp)
  1008b3:	81 7d f4 ff 00 00 00 	cmpl   $0xff,-0xc(%ebp)
  1008ba:	7e d8                	jle    100894 <idt_init+0xf>
  1008bc:	83 ec 04             	sub    $0x4,%esp
  1008bf:	68 8f 00 00 00       	push   $0x8f
  1008c4:	68 00 0e 10 00       	push   $0x100e00
  1008c9:	6a 00                	push   $0x0
  1008cb:	e8 7d 04 00 00       	call   100d4d <idt_add_entry>
  1008d0:	83 c4 10             	add    $0x10,%esp
  1008d3:	83 ec 04             	sub    $0x4,%esp
  1008d6:	68 8f 00 00 00       	push   $0x8f
  1008db:	68 0a 0e 10 00       	push   $0x100e0a
  1008e0:	6a 01                	push   $0x1
  1008e2:	e8 66 04 00 00       	call   100d4d <idt_add_entry>
  1008e7:	83 c4 10             	add    $0x10,%esp
  1008ea:	83 ec 04             	sub    $0x4,%esp
  1008ed:	68 8f 00 00 00       	push   $0x8f
  1008f2:	68 14 0e 10 00       	push   $0x100e14
  1008f7:	6a 02                	push   $0x2
  1008f9:	e8 4f 04 00 00       	call   100d4d <idt_add_entry>
  1008fe:	83 c4 10             	add    $0x10,%esp
  100901:	83 ec 04             	sub    $0x4,%esp
  100904:	68 8f 00 00 00       	push   $0x8f
  100909:	68 1e 0e 10 00       	push   $0x100e1e
  10090e:	6a 03                	push   $0x3
  100910:	e8 38 04 00 00       	call   100d4d <idt_add_entry>
  100915:	83 c4 10             	add    $0x10,%esp
  100918:	83 ec 04             	sub    $0x4,%esp
  10091b:	68 8f 00 00 00       	push   $0x8f
  100920:	68 28 0e 10 00       	push   $0x100e28
  100925:	6a 04                	push   $0x4
  100927:	e8 21 04 00 00       	call   100d4d <idt_add_entry>
  10092c:	83 c4 10             	add    $0x10,%esp
  10092f:	83 ec 04             	sub    $0x4,%esp
  100932:	68 8f 00 00 00       	push   $0x8f
  100937:	68 32 0e 10 00       	push   $0x100e32
  10093c:	6a 05                	push   $0x5
  10093e:	e8 0a 04 00 00       	call   100d4d <idt_add_entry>
  100943:	83 c4 10             	add    $0x10,%esp
  100946:	83 ec 04             	sub    $0x4,%esp
  100949:	68 8f 00 00 00       	push   $0x8f
  10094e:	68 3c 0e 10 00       	push   $0x100e3c
  100953:	6a 06                	push   $0x6
  100955:	e8 f3 03 00 00       	call   100d4d <idt_add_entry>
  10095a:	83 c4 10             	add    $0x10,%esp
  10095d:	83 ec 04             	sub    $0x4,%esp
  100960:	68 8f 00 00 00       	push   $0x8f
  100965:	68 46 0e 10 00       	push   $0x100e46
  10096a:	6a 07                	push   $0x7
  10096c:	e8 dc 03 00 00       	call   100d4d <idt_add_entry>
  100971:	83 c4 10             	add    $0x10,%esp
  100974:	83 ec 04             	sub    $0x4,%esp
  100977:	68 8f 00 00 00       	push   $0x8f
  10097c:	68 50 0e 10 00       	push   $0x100e50
  100981:	6a 08                	push   $0x8
  100983:	e8 c5 03 00 00       	call   100d4d <idt_add_entry>
  100988:	83 c4 10             	add    $0x10,%esp
  10098b:	83 ec 04             	sub    $0x4,%esp
  10098e:	68 8f 00 00 00       	push   $0x8f
  100993:	68 5a 0e 10 00       	push   $0x100e5a
  100998:	6a 09                	push   $0x9
  10099a:	e8 ae 03 00 00       	call   100d4d <idt_add_entry>
  10099f:	83 c4 10             	add    $0x10,%esp
  1009a2:	83 ec 04             	sub    $0x4,%esp
  1009a5:	68 8f 00 00 00       	push   $0x8f
  1009aa:	68 64 0e 10 00       	push   $0x100e64
  1009af:	6a 0a                	push   $0xa
  1009b1:	e8 97 03 00 00       	call   100d4d <idt_add_entry>
  1009b6:	83 c4 10             	add    $0x10,%esp
  1009b9:	83 ec 04             	sub    $0x4,%esp
  1009bc:	68 8f 00 00 00       	push   $0x8f
  1009c1:	68 6e 0e 10 00       	push   $0x100e6e
  1009c6:	6a 0b                	push   $0xb
  1009c8:	e8 80 03 00 00       	call   100d4d <idt_add_entry>
  1009cd:	83 c4 10             	add    $0x10,%esp
  1009d0:	83 ec 04             	sub    $0x4,%esp
  1009d3:	68 8f 00 00 00       	push   $0x8f
  1009d8:	68 78 0e 10 00       	push   $0x100e78
  1009dd:	6a 0c                	push   $0xc
  1009df:	e8 69 03 00 00       	call   100d4d <idt_add_entry>
  1009e4:	83 c4 10             	add    $0x10,%esp
  1009e7:	83 ec 04             	sub    $0x4,%esp
  1009ea:	68 8f 00 00 00       	push   $0x8f
  1009ef:	68 82 0e 10 00       	push   $0x100e82
  1009f4:	6a 0d                	push   $0xd
  1009f6:	e8 52 03 00 00       	call   100d4d <idt_add_entry>
  1009fb:	83 c4 10             	add    $0x10,%esp
  1009fe:	83 ec 04             	sub    $0x4,%esp
  100a01:	68 8f 00 00 00       	push   $0x8f
  100a06:	68 8c 0e 10 00       	push   $0x100e8c
  100a0b:	6a 0e                	push   $0xe
  100a0d:	e8 3b 03 00 00       	call   100d4d <idt_add_entry>
  100a12:	83 c4 10             	add    $0x10,%esp
  100a15:	83 ec 04             	sub    $0x4,%esp
  100a18:	68 8f 00 00 00       	push   $0x8f
  100a1d:	68 94 0e 10 00       	push   $0x100e94
  100a22:	6a 0f                	push   $0xf
  100a24:	e8 24 03 00 00       	call   100d4d <idt_add_entry>
  100a29:	83 c4 10             	add    $0x10,%esp
  100a2c:	83 ec 04             	sub    $0x4,%esp
  100a2f:	68 8f 00 00 00       	push   $0x8f
  100a34:	68 9e 0e 10 00       	push   $0x100e9e
  100a39:	6a 10                	push   $0x10
  100a3b:	e8 0d 03 00 00       	call   100d4d <idt_add_entry>
  100a40:	83 c4 10             	add    $0x10,%esp
  100a43:	83 ec 04             	sub    $0x4,%esp
  100a46:	68 8f 00 00 00       	push   $0x8f
  100a4b:	68 a8 0e 10 00       	push   $0x100ea8
  100a50:	6a 11                	push   $0x11
  100a52:	e8 f6 02 00 00       	call   100d4d <idt_add_entry>
  100a57:	83 c4 10             	add    $0x10,%esp
  100a5a:	83 ec 04             	sub    $0x4,%esp
  100a5d:	68 8f 00 00 00       	push   $0x8f
  100a62:	68 b2 0e 10 00       	push   $0x100eb2
  100a67:	6a 12                	push   $0x12
  100a69:	e8 df 02 00 00       	call   100d4d <idt_add_entry>
  100a6e:	83 c4 10             	add    $0x10,%esp
  100a71:	83 ec 04             	sub    $0x4,%esp
  100a74:	68 8f 00 00 00       	push   $0x8f
  100a79:	68 bc 0e 10 00       	push   $0x100ebc
  100a7e:	6a 13                	push   $0x13
  100a80:	e8 c8 02 00 00       	call   100d4d <idt_add_entry>
  100a85:	83 c4 10             	add    $0x10,%esp
  100a88:	83 ec 04             	sub    $0x4,%esp
  100a8b:	68 8f 00 00 00       	push   $0x8f
  100a90:	68 c6 0e 10 00       	push   $0x100ec6
  100a95:	6a 14                	push   $0x14
  100a97:	e8 b1 02 00 00       	call   100d4d <idt_add_entry>
  100a9c:	83 c4 10             	add    $0x10,%esp
  100a9f:	83 ec 04             	sub    $0x4,%esp
  100aa2:	68 8f 00 00 00       	push   $0x8f
  100aa7:	68 d0 0e 10 00       	push   $0x100ed0
  100aac:	6a 15                	push   $0x15
  100aae:	e8 9a 02 00 00       	call   100d4d <idt_add_entry>
  100ab3:	83 c4 10             	add    $0x10,%esp
  100ab6:	83 ec 04             	sub    $0x4,%esp
  100ab9:	68 8f 00 00 00       	push   $0x8f
  100abe:	68 da 0e 10 00       	push   $0x100eda
  100ac3:	6a 16                	push   $0x16
  100ac5:	e8 83 02 00 00       	call   100d4d <idt_add_entry>
  100aca:	83 c4 10             	add    $0x10,%esp
  100acd:	83 ec 04             	sub    $0x4,%esp
  100ad0:	68 8f 00 00 00       	push   $0x8f
  100ad5:	68 e4 0e 10 00       	push   $0x100ee4
  100ada:	6a 17                	push   $0x17
  100adc:	e8 6c 02 00 00       	call   100d4d <idt_add_entry>
  100ae1:	83 c4 10             	add    $0x10,%esp
  100ae4:	83 ec 04             	sub    $0x4,%esp
  100ae7:	68 8f 00 00 00       	push   $0x8f
  100aec:	68 ee 0e 10 00       	push   $0x100eee
  100af1:	6a 18                	push   $0x18
  100af3:	e8 55 02 00 00       	call   100d4d <idt_add_entry>
  100af8:	83 c4 10             	add    $0x10,%esp
  100afb:	83 ec 04             	sub    $0x4,%esp
  100afe:	68 8f 00 00 00       	push   $0x8f
  100b03:	68 f8 0e 10 00       	push   $0x100ef8
  100b08:	6a 19                	push   $0x19
  100b0a:	e8 3e 02 00 00       	call   100d4d <idt_add_entry>
  100b0f:	83 c4 10             	add    $0x10,%esp
  100b12:	83 ec 04             	sub    $0x4,%esp
  100b15:	68 8f 00 00 00       	push   $0x8f
  100b1a:	68 02 0f 10 00       	push   $0x100f02
  100b1f:	6a 1a                	push   $0x1a
  100b21:	e8 27 02 00 00       	call   100d4d <idt_add_entry>
  100b26:	83 c4 10             	add    $0x10,%esp
  100b29:	83 ec 04             	sub    $0x4,%esp
  100b2c:	68 8f 00 00 00       	push   $0x8f
  100b31:	68 0c 0f 10 00       	push   $0x100f0c
  100b36:	6a 1b                	push   $0x1b
  100b38:	e8 10 02 00 00       	call   100d4d <idt_add_entry>
  100b3d:	83 c4 10             	add    $0x10,%esp
  100b40:	83 ec 04             	sub    $0x4,%esp
  100b43:	68 8f 00 00 00       	push   $0x8f
  100b48:	68 16 0f 10 00       	push   $0x100f16
  100b4d:	6a 1c                	push   $0x1c
  100b4f:	e8 f9 01 00 00       	call   100d4d <idt_add_entry>
  100b54:	83 c4 10             	add    $0x10,%esp
  100b57:	83 ec 04             	sub    $0x4,%esp
  100b5a:	68 8f 00 00 00       	push   $0x8f
  100b5f:	68 20 0f 10 00       	push   $0x100f20
  100b64:	6a 1d                	push   $0x1d
  100b66:	e8 e2 01 00 00       	call   100d4d <idt_add_entry>
  100b6b:	83 c4 10             	add    $0x10,%esp
  100b6e:	83 ec 04             	sub    $0x4,%esp
  100b71:	68 8f 00 00 00       	push   $0x8f
  100b76:	68 2a 0f 10 00       	push   $0x100f2a
  100b7b:	6a 1e                	push   $0x1e
  100b7d:	e8 cb 01 00 00       	call   100d4d <idt_add_entry>
  100b82:	83 c4 10             	add    $0x10,%esp
  100b85:	83 ec 04             	sub    $0x4,%esp
  100b88:	68 8f 00 00 00       	push   $0x8f
  100b8d:	68 34 0f 10 00       	push   $0x100f34
  100b92:	6a 1f                	push   $0x1f
  100b94:	e8 b4 01 00 00       	call   100d4d <idt_add_entry>
  100b99:	83 c4 10             	add    $0x10,%esp
  100b9c:	83 ec 04             	sub    $0x4,%esp
  100b9f:	68 8e 00 00 00       	push   $0x8e
  100ba4:	68 52 0f 10 00       	push   $0x100f52
  100ba9:	6a 20                	push   $0x20
  100bab:	e8 9d 01 00 00       	call   100d4d <idt_add_entry>
  100bb0:	83 c4 10             	add    $0x10,%esp
  100bb3:	83 ec 04             	sub    $0x4,%esp
  100bb6:	68 8e 00 00 00       	push   $0x8e
  100bbb:	68 5c 0f 10 00       	push   $0x100f5c
  100bc0:	6a 21                	push   $0x21
  100bc2:	e8 86 01 00 00       	call   100d4d <idt_add_entry>
  100bc7:	83 c4 10             	add    $0x10,%esp
  100bca:	83 ec 04             	sub    $0x4,%esp
  100bcd:	68 8e 00 00 00       	push   $0x8e
  100bd2:	68 66 0f 10 00       	push   $0x100f66
  100bd7:	6a 22                	push   $0x22
  100bd9:	e8 6f 01 00 00       	call   100d4d <idt_add_entry>
  100bde:	83 c4 10             	add    $0x10,%esp
  100be1:	83 ec 04             	sub    $0x4,%esp
  100be4:	68 8e 00 00 00       	push   $0x8e
  100be9:	68 70 0f 10 00       	push   $0x100f70
  100bee:	6a 23                	push   $0x23
  100bf0:	e8 58 01 00 00       	call   100d4d <idt_add_entry>
  100bf5:	83 c4 10             	add    $0x10,%esp
  100bf8:	83 ec 04             	sub    $0x4,%esp
  100bfb:	68 8e 00 00 00       	push   $0x8e
  100c00:	68 7a 0f 10 00       	push   $0x100f7a
  100c05:	6a 24                	push   $0x24
  100c07:	e8 41 01 00 00       	call   100d4d <idt_add_entry>
  100c0c:	83 c4 10             	add    $0x10,%esp
  100c0f:	83 ec 04             	sub    $0x4,%esp
  100c12:	68 8e 00 00 00       	push   $0x8e
  100c17:	68 84 0f 10 00       	push   $0x100f84
  100c1c:	6a 25                	push   $0x25
  100c1e:	e8 2a 01 00 00       	call   100d4d <idt_add_entry>
  100c23:	83 c4 10             	add    $0x10,%esp
  100c26:	83 ec 04             	sub    $0x4,%esp
  100c29:	68 8e 00 00 00       	push   $0x8e
  100c2e:	68 8e 0f 10 00       	push   $0x100f8e
  100c33:	6a 26                	push   $0x26
  100c35:	e8 13 01 00 00       	call   100d4d <idt_add_entry>
  100c3a:	83 c4 10             	add    $0x10,%esp
  100c3d:	83 ec 04             	sub    $0x4,%esp
  100c40:	68 8e 00 00 00       	push   $0x8e
  100c45:	68 98 0f 10 00       	push   $0x100f98
  100c4a:	6a 27                	push   $0x27
  100c4c:	e8 fc 00 00 00       	call   100d4d <idt_add_entry>
  100c51:	83 c4 10             	add    $0x10,%esp
  100c54:	83 ec 04             	sub    $0x4,%esp
  100c57:	68 8e 00 00 00       	push   $0x8e
  100c5c:	68 a2 0f 10 00       	push   $0x100fa2
  100c61:	6a 28                	push   $0x28
  100c63:	e8 e5 00 00 00       	call   100d4d <idt_add_entry>
  100c68:	83 c4 10             	add    $0x10,%esp
  100c6b:	83 ec 04             	sub    $0x4,%esp
  100c6e:	68 8e 00 00 00       	push   $0x8e
  100c73:	68 ac 0f 10 00       	push   $0x100fac
  100c78:	6a 29                	push   $0x29
  100c7a:	e8 ce 00 00 00       	call   100d4d <idt_add_entry>
  100c7f:	83 c4 10             	add    $0x10,%esp
  100c82:	83 ec 04             	sub    $0x4,%esp
  100c85:	68 8e 00 00 00       	push   $0x8e
  100c8a:	68 b6 0f 10 00       	push   $0x100fb6
  100c8f:	6a 2a                	push   $0x2a
  100c91:	e8 b7 00 00 00       	call   100d4d <idt_add_entry>
  100c96:	83 c4 10             	add    $0x10,%esp
  100c99:	83 ec 04             	sub    $0x4,%esp
  100c9c:	68 8e 00 00 00       	push   $0x8e
  100ca1:	68 c0 0f 10 00       	push   $0x100fc0
  100ca6:	6a 2b                	push   $0x2b
  100ca8:	e8 a0 00 00 00       	call   100d4d <idt_add_entry>
  100cad:	83 c4 10             	add    $0x10,%esp
  100cb0:	83 ec 04             	sub    $0x4,%esp
  100cb3:	68 8e 00 00 00       	push   $0x8e
  100cb8:	68 ca 0f 10 00       	push   $0x100fca
  100cbd:	6a 2c                	push   $0x2c
  100cbf:	e8 89 00 00 00       	call   100d4d <idt_add_entry>
  100cc4:	83 c4 10             	add    $0x10,%esp
  100cc7:	83 ec 04             	sub    $0x4,%esp
  100cca:	68 8e 00 00 00       	push   $0x8e
  100ccf:	68 d4 0f 10 00       	push   $0x100fd4
  100cd4:	6a 2d                	push   $0x2d
  100cd6:	e8 72 00 00 00       	call   100d4d <idt_add_entry>
  100cdb:	83 c4 10             	add    $0x10,%esp
  100cde:	83 ec 04             	sub    $0x4,%esp
  100ce1:	68 8e 00 00 00       	push   $0x8e
  100ce6:	68 de 0f 10 00       	push   $0x100fde
  100ceb:	6a 2e                	push   $0x2e
  100ced:	e8 5b 00 00 00       	call   100d4d <idt_add_entry>
  100cf2:	83 c4 10             	add    $0x10,%esp
  100cf5:	83 ec 04             	sub    $0x4,%esp
  100cf8:	68 8e 00 00 00       	push   $0x8e
  100cfd:	68 e8 0f 10 00       	push   $0x100fe8
  100d02:	6a 2f                	push   $0x2f
  100d04:	e8 44 00 00 00       	call   100d4d <idt_add_entry>
  100d09:	83 c4 10             	add    $0x10,%esp
  100d0c:	83 ec 04             	sub    $0x4,%esp
  100d0f:	68 8f 00 00 00       	push   $0x8f
  100d14:	68 3e 0f 10 00       	push   $0x100f3e
  100d19:	6a 50                	push   $0x50
  100d1b:	e8 2d 00 00 00       	call   100d4d <idt_add_entry>
  100d20:	83 c4 10             	add    $0x10,%esp
  100d23:	83 ec 04             	sub    $0x4,%esp
  100d26:	68 8f 00 00 00       	push   $0x8f
  100d2b:	68 48 0f 10 00       	push   $0x100f48
  100d30:	6a 51                	push   $0x51
  100d32:	e8 16 00 00 00       	call   100d4d <idt_add_entry>
  100d37:	83 c4 10             	add    $0x10,%esp
  100d3a:	83 ec 0c             	sub    $0xc,%esp
  100d3d:	68 90 00 11 00       	push   $0x110090
  100d42:	e8 a0 00 00 00       	call   100de7 <store_idt>
  100d47:	83 c4 10             	add    $0x10,%esp
  100d4a:	90                   	nop
  100d4b:	c9                   	leave  
  100d4c:	c3                   	ret    

00100d4d <idt_add_entry>:
  100d4d:	55                   	push   %ebp
  100d4e:	89 e5                	mov    %esp,%ebp
  100d50:	83 ec 18             	sub    $0x18,%esp
  100d53:	8b 55 08             	mov    0x8(%ebp),%edx
  100d56:	8b 45 10             	mov    0x10(%ebp),%eax
  100d59:	88 55 ec             	mov    %dl,-0x14(%ebp)
  100d5c:	88 45 e8             	mov    %al,-0x18(%ebp)
  100d5f:	0f b6 45 ec          	movzbl -0x14(%ebp),%eax
  100d63:	c1 e0 03             	shl    $0x3,%eax
  100d66:	05 90 00 11 00       	add    $0x110090,%eax
  100d6b:	89 45 fc             	mov    %eax,-0x4(%ebp)
  100d6e:	8b 45 0c             	mov    0xc(%ebp),%eax
  100d71:	89 c2                	mov    %eax,%edx
  100d73:	8b 45 fc             	mov    -0x4(%ebp),%eax
  100d76:	66 89 10             	mov    %dx,(%eax)
  100d79:	8b 45 fc             	mov    -0x4(%ebp),%eax
  100d7c:	66 c7 40 02 08 00    	movw   $0x8,0x2(%eax)
  100d82:	8b 45 fc             	mov    -0x4(%ebp),%eax
  100d85:	0f b6 55 e8          	movzbl -0x18(%ebp),%edx
  100d89:	88 50 05             	mov    %dl,0x5(%eax)
  100d8c:	8b 45 0c             	mov    0xc(%ebp),%eax
  100d8f:	c1 e8 10             	shr    $0x10,%eax
  100d92:	89 c2                	mov    %eax,%edx
  100d94:	8b 45 fc             	mov    -0x4(%ebp),%eax
  100d97:	66 89 50 06          	mov    %dx,0x6(%eax)
  100d9b:	8b 45 fc             	mov    -0x4(%ebp),%eax
  100d9e:	c6 40 04 00          	movb   $0x0,0x4(%eax)
  100da2:	90                   	nop
  100da3:	c9                   	leave  
  100da4:	c3                   	ret    

00100da5 <idt_get_entry>:
  100da5:	55                   	push   %ebp
  100da6:	89 e5                	mov    %esp,%ebp
  100da8:	83 ec 14             	sub    $0x14,%esp
  100dab:	8b 45 08             	mov    0x8(%ebp),%eax
  100dae:	88 45 ec             	mov    %al,-0x14(%ebp)
  100db1:	0f b6 45 ec          	movzbl -0x14(%ebp),%eax
  100db5:	0f b7 04 c5 90 00 11 	movzwl 0x110090(,%eax,8),%eax
  100dbc:	00 
  100dbd:	0f b7 c0             	movzwl %ax,%eax
  100dc0:	89 45 fc             	mov    %eax,-0x4(%ebp)
  100dc3:	0f b6 45 ec          	movzbl -0x14(%ebp),%eax
  100dc7:	0f b7 04 c5 96 00 11 	movzwl 0x110096(,%eax,8),%eax
  100dce:	00 
  100dcf:	0f b7 c0             	movzwl %ax,%eax
  100dd2:	c1 e0 10             	shl    $0x10,%eax
  100dd5:	09 45 fc             	or     %eax,-0x4(%ebp)
  100dd8:	8b 45 fc             	mov    -0x4(%ebp),%eax
  100ddb:	c9                   	leave  
  100ddc:	c3                   	ret    

00100ddd <idt_get_addr>:
  100ddd:	55                   	push   %ebp
  100dde:	89 e5                	mov    %esp,%ebp
  100de0:	b8 90 00 11 00       	mov    $0x110090,%eax
  100de5:	5d                   	pop    %ebp
  100de6:	c3                   	ret    

00100de7 <store_idt>:
  100de7:	55                   	push   %ebp
  100de8:	89 e5                	mov    %esp,%ebp
  100dea:	83 ec 10             	sub    $0x10,%esp
  100ded:	8b 45 08             	mov    0x8(%ebp),%eax
  100df0:	89 45 fc             	mov    %eax,-0x4(%ebp)
  100df3:	66 c7 45 fa ff 07    	movw   $0x7ff,-0x6(%ebp)
  100df9:	0f 01 5d fa          	lidtl  -0x6(%ebp)
  100dfd:	90                   	nop
  100dfe:	c9                   	leave  
  100dff:	c3                   	ret    

00100e00 <isr0_entry_point>:
  100e00:	fa                   	cli    
  100e01:	6a 00                	push   $0x0
  100e03:	6a 00                	push   $0x0
  100e05:	e9 e8 01 00 00       	jmp    100ff2 <ll_int_dispatcher>

00100e0a <isr1_entry_point>:
  100e0a:	fa                   	cli    
  100e0b:	6a 00                	push   $0x0
  100e0d:	6a 01                	push   $0x1
  100e0f:	e9 de 01 00 00       	jmp    100ff2 <ll_int_dispatcher>

00100e14 <isr2_entry_point>:
  100e14:	fa                   	cli    
  100e15:	6a 00                	push   $0x0
  100e17:	6a 02                	push   $0x2
  100e19:	e9 d4 01 00 00       	jmp    100ff2 <ll_int_dispatcher>

00100e1e <isr3_entry_point>:
  100e1e:	fa                   	cli    
  100e1f:	6a 00                	push   $0x0
  100e21:	6a 03                	push   $0x3
  100e23:	e9 ca 01 00 00       	jmp    100ff2 <ll_int_dispatcher>

00100e28 <isr4_entry_point>:
  100e28:	fa                   	cli    
  100e29:	6a 00                	push   $0x0
  100e2b:	6a 04                	push   $0x4
  100e2d:	e9 c0 01 00 00       	jmp    100ff2 <ll_int_dispatcher>

00100e32 <isr5_entry_point>:
  100e32:	fa                   	cli    
  100e33:	6a 00                	push   $0x0
  100e35:	6a 05                	push   $0x5
  100e37:	e9 b6 01 00 00       	jmp    100ff2 <ll_int_dispatcher>

00100e3c <isr6_entry_point>:
  100e3c:	fa                   	cli    
  100e3d:	6a 00                	push   $0x0
  100e3f:	6a 06                	push   $0x6
  100e41:	e9 ac 01 00 00       	jmp    100ff2 <ll_int_dispatcher>

00100e46 <isr7_entry_point>:
  100e46:	fa                   	cli    
  100e47:	6a 00                	push   $0x0
  100e49:	6a 07                	push   $0x7
  100e4b:	e9 a2 01 00 00       	jmp    100ff2 <ll_int_dispatcher>

00100e50 <isr8_entry_point>:
  100e50:	fa                   	cli    
  100e51:	6a 00                	push   $0x0
  100e53:	6a 08                	push   $0x8
  100e55:	e9 98 01 00 00       	jmp    100ff2 <ll_int_dispatcher>

00100e5a <isr9_entry_point>:
  100e5a:	fa                   	cli    
  100e5b:	6a 00                	push   $0x0
  100e5d:	6a 09                	push   $0x9
  100e5f:	e9 8e 01 00 00       	jmp    100ff2 <ll_int_dispatcher>

00100e64 <isr10_entry_point>:
  100e64:	fa                   	cli    
  100e65:	6a 00                	push   $0x0
  100e67:	6a 0a                	push   $0xa
  100e69:	e9 84 01 00 00       	jmp    100ff2 <ll_int_dispatcher>

00100e6e <isr11_entry_point>:
  100e6e:	fa                   	cli    
  100e6f:	6a 00                	push   $0x0
  100e71:	6a 0b                	push   $0xb
  100e73:	e9 7a 01 00 00       	jmp    100ff2 <ll_int_dispatcher>

00100e78 <isr12_entry_point>:
  100e78:	fa                   	cli    
  100e79:	6a 00                	push   $0x0
  100e7b:	6a 0c                	push   $0xc
  100e7d:	e9 70 01 00 00       	jmp    100ff2 <ll_int_dispatcher>

00100e82 <isr13_entry_point>:
  100e82:	fa                   	cli    
  100e83:	6a 00                	push   $0x0
  100e85:	6a 0d                	push   $0xd
  100e87:	e9 66 01 00 00       	jmp    100ff2 <ll_int_dispatcher>

00100e8c <isr14_entry_point>:
  100e8c:	fa                   	cli    
  100e8d:	6a 0e                	push   $0xe
  100e8f:	e9 5e 01 00 00       	jmp    100ff2 <ll_int_dispatcher>

00100e94 <isr15_entry_point>:
  100e94:	fa                   	cli    
  100e95:	6a 00                	push   $0x0
  100e97:	6a 0f                	push   $0xf
  100e99:	e9 54 01 00 00       	jmp    100ff2 <ll_int_dispatcher>

00100e9e <isr16_entry_point>:
  100e9e:	fa                   	cli    
  100e9f:	6a 00                	push   $0x0
  100ea1:	6a 10                	push   $0x10
  100ea3:	e9 4a 01 00 00       	jmp    100ff2 <ll_int_dispatcher>

00100ea8 <isr17_entry_point>:
  100ea8:	fa                   	cli    
  100ea9:	6a 00                	push   $0x0
  100eab:	6a 11                	push   $0x11
  100ead:	e9 40 01 00 00       	jmp    100ff2 <ll_int_dispatcher>

00100eb2 <isr18_entry_point>:
  100eb2:	fa                   	cli    
  100eb3:	6a 00                	push   $0x0
  100eb5:	6a 12                	push   $0x12
  100eb7:	e9 36 01 00 00       	jmp    100ff2 <ll_int_dispatcher>

00100ebc <isr19_entry_point>:
  100ebc:	fa                   	cli    
  100ebd:	6a 00                	push   $0x0
  100ebf:	6a 13                	push   $0x13
  100ec1:	e9 2c 01 00 00       	jmp    100ff2 <ll_int_dispatcher>

00100ec6 <isr20_entry_point>:
  100ec6:	fa                   	cli    
  100ec7:	6a 00                	push   $0x0
  100ec9:	6a 14                	push   $0x14
  100ecb:	e9 22 01 00 00       	jmp    100ff2 <ll_int_dispatcher>

00100ed0 <isr21_entry_point>:
  100ed0:	fa                   	cli    
  100ed1:	6a 00                	push   $0x0
  100ed3:	6a 15                	push   $0x15
  100ed5:	e9 18 01 00 00       	jmp    100ff2 <ll_int_dispatcher>

00100eda <isr22_entry_point>:
  100eda:	fa                   	cli    
  100edb:	6a 00                	push   $0x0
  100edd:	6a 16                	push   $0x16
  100edf:	e9 0e 01 00 00       	jmp    100ff2 <ll_int_dispatcher>

00100ee4 <isr23_entry_point>:
  100ee4:	fa                   	cli    
  100ee5:	6a 00                	push   $0x0
  100ee7:	6a 17                	push   $0x17
  100ee9:	e9 04 01 00 00       	jmp    100ff2 <ll_int_dispatcher>

00100eee <isr24_entry_point>:
  100eee:	fa                   	cli    
  100eef:	6a 00                	push   $0x0
  100ef1:	6a 18                	push   $0x18
  100ef3:	e9 fa 00 00 00       	jmp    100ff2 <ll_int_dispatcher>

00100ef8 <isr25_entry_point>:
  100ef8:	fa                   	cli    
  100ef9:	6a 00                	push   $0x0
  100efb:	6a 19                	push   $0x19
  100efd:	e9 f0 00 00 00       	jmp    100ff2 <ll_int_dispatcher>

00100f02 <isr26_entry_point>:
  100f02:	fa                   	cli    
  100f03:	6a 00                	push   $0x0
  100f05:	6a 1a                	push   $0x1a
  100f07:	e9 e6 00 00 00       	jmp    100ff2 <ll_int_dispatcher>

00100f0c <isr27_entry_point>:
  100f0c:	fa                   	cli    
  100f0d:	6a 00                	push   $0x0
  100f0f:	6a 1b                	push   $0x1b
  100f11:	e9 dc 00 00 00       	jmp    100ff2 <ll_int_dispatcher>

00100f16 <isr28_entry_point>:
  100f16:	fa                   	cli    
  100f17:	6a 00                	push   $0x0
  100f19:	6a 1c                	push   $0x1c
  100f1b:	e9 d2 00 00 00       	jmp    100ff2 <ll_int_dispatcher>

00100f20 <isr29_entry_point>:
  100f20:	fa                   	cli    
  100f21:	6a 00                	push   $0x0
  100f23:	6a 1d                	push   $0x1d
  100f25:	e9 c8 00 00 00       	jmp    100ff2 <ll_int_dispatcher>

00100f2a <isr30_entry_point>:
  100f2a:	fa                   	cli    
  100f2b:	6a 00                	push   $0x0
  100f2d:	6a 1e                	push   $0x1e
  100f2f:	e9 be 00 00 00       	jmp    100ff2 <ll_int_dispatcher>

00100f34 <isr31_entry_point>:
  100f34:	fa                   	cli    
  100f35:	6a 00                	push   $0x0
  100f37:	6a 1f                	push   $0x1f
  100f39:	e9 b4 00 00 00       	jmp    100ff2 <ll_int_dispatcher>

00100f3e <isr80_entry_point>:
  100f3e:	fa                   	cli    
  100f3f:	6a 00                	push   $0x0
  100f41:	6a 50                	push   $0x50
  100f43:	e9 aa 00 00 00       	jmp    100ff2 <ll_int_dispatcher>

00100f48 <isr81_entry_point>:
  100f48:	fa                   	cli    
  100f49:	6a 00                	push   $0x0
  100f4b:	6a 51                	push   $0x51
  100f4d:	e9 a0 00 00 00       	jmp    100ff2 <ll_int_dispatcher>

00100f52 <irq0_entry_point>:
  100f52:	fa                   	cli    
  100f53:	6a 00                	push   $0x0
  100f55:	6a 20                	push   $0x20
  100f57:	e9 bb 00 00 00       	jmp    101017 <ll_irq_dispatcher>

00100f5c <irq1_entry_point>:
  100f5c:	fa                   	cli    
  100f5d:	6a 00                	push   $0x0
  100f5f:	6a 21                	push   $0x21
  100f61:	e9 b1 00 00 00       	jmp    101017 <ll_irq_dispatcher>

00100f66 <irq2_entry_point>:
  100f66:	fa                   	cli    
  100f67:	6a 00                	push   $0x0
  100f69:	6a 22                	push   $0x22
  100f6b:	e9 a7 00 00 00       	jmp    101017 <ll_irq_dispatcher>

00100f70 <irq3_entry_point>:
  100f70:	fa                   	cli    
  100f71:	6a 00                	push   $0x0
  100f73:	6a 23                	push   $0x23
  100f75:	e9 9d 00 00 00       	jmp    101017 <ll_irq_dispatcher>

00100f7a <irq4_entry_point>:
  100f7a:	fa                   	cli    
  100f7b:	6a 00                	push   $0x0
  100f7d:	6a 24                	push   $0x24
  100f7f:	e9 93 00 00 00       	jmp    101017 <ll_irq_dispatcher>

00100f84 <irq5_entry_point>:
  100f84:	fa                   	cli    
  100f85:	6a 00                	push   $0x0
  100f87:	6a 25                	push   $0x25
  100f89:	e9 89 00 00 00       	jmp    101017 <ll_irq_dispatcher>

00100f8e <irq6_entry_point>:
  100f8e:	fa                   	cli    
  100f8f:	6a 00                	push   $0x0
  100f91:	6a 26                	push   $0x26
  100f93:	e9 7f 00 00 00       	jmp    101017 <ll_irq_dispatcher>

00100f98 <irq7_entry_point>:
  100f98:	fa                   	cli    
  100f99:	6a 00                	push   $0x0
  100f9b:	6a 27                	push   $0x27
  100f9d:	e9 75 00 00 00       	jmp    101017 <ll_irq_dispatcher>

00100fa2 <irq8_entry_point>:
  100fa2:	fa                   	cli    
  100fa3:	6a 00                	push   $0x0
  100fa5:	6a 28                	push   $0x28
  100fa7:	e9 6b 00 00 00       	jmp    101017 <ll_irq_dispatcher>

00100fac <irq9_entry_point>:
  100fac:	fa                   	cli    
  100fad:	6a 00                	push   $0x0
  100faf:	6a 29                	push   $0x29
  100fb1:	e9 61 00 00 00       	jmp    101017 <ll_irq_dispatcher>

00100fb6 <irq10_entry_point>:
  100fb6:	fa                   	cli    
  100fb7:	6a 00                	push   $0x0
  100fb9:	6a 2a                	push   $0x2a
  100fbb:	e9 57 00 00 00       	jmp    101017 <ll_irq_dispatcher>

00100fc0 <irq11_entry_point>:
  100fc0:	fa                   	cli    
  100fc1:	6a 00                	push   $0x0
  100fc3:	6a 2b                	push   $0x2b
  100fc5:	e9 4d 00 00 00       	jmp    101017 <ll_irq_dispatcher>

00100fca <irq12_entry_point>:
  100fca:	fa                   	cli    
  100fcb:	6a 00                	push   $0x0
  100fcd:	6a 2c                	push   $0x2c
  100fcf:	e9 43 00 00 00       	jmp    101017 <ll_irq_dispatcher>

00100fd4 <irq13_entry_point>:
  100fd4:	fa                   	cli    
  100fd5:	6a 00                	push   $0x0
  100fd7:	6a 2d                	push   $0x2d
  100fd9:	e9 39 00 00 00       	jmp    101017 <ll_irq_dispatcher>

00100fde <irq14_entry_point>:
  100fde:	fa                   	cli    
  100fdf:	6a 00                	push   $0x0
  100fe1:	6a 2e                	push   $0x2e
  100fe3:	e9 2f 00 00 00       	jmp    101017 <ll_irq_dispatcher>

00100fe8 <irq15_entry_point>:
  100fe8:	fa                   	cli    
  100fe9:	6a 00                	push   $0x0
  100feb:	6a 2f                	push   $0x2f
  100fed:	e9 25 00 00 00       	jmp    101017 <ll_irq_dispatcher>

00100ff2 <ll_int_dispatcher>:
  100ff2:	60                   	pusha  
  100ff3:	66 8c d8             	mov    %ds,%ax
  100ff6:	50                   	push   %eax
  100ff7:	66 b8 10 00          	mov    $0x10,%ax
  100ffb:	8e d8                	mov    %eax,%ds
  100ffd:	8e c0                	mov    %eax,%es
  100fff:	8e e0                	mov    %eax,%fs
  101001:	8e e8                	mov    %eax,%gs
  101003:	e8 59 01 00 00       	call   101161 <hl_int_dispatcher>
  101008:	58                   	pop    %eax
  101009:	8e d8                	mov    %eax,%ds
  10100b:	8e c0                	mov    %eax,%es
  10100d:	8e e0                	mov    %eax,%fs
  10100f:	8e e8                	mov    %eax,%gs
  101011:	61                   	popa   
  101012:	83 c4 08             	add    $0x8,%esp
  101015:	fb                   	sti    
  101016:	cf                   	iret   

00101017 <ll_irq_dispatcher>:
  101017:	60                   	pusha  
  101018:	66 8c d8             	mov    %ds,%ax
  10101b:	50                   	push   %eax
  10101c:	66 b8 10 00          	mov    $0x10,%ax
  101020:	8e d8                	mov    %eax,%ds
  101022:	8e c0                	mov    %eax,%es
  101024:	8e e0                	mov    %eax,%fs
  101026:	8e e8                	mov    %eax,%gs
  101028:	e8 7f 02 00 00       	call   1012ac <hl_irq_dispatcher>
  10102d:	58                   	pop    %eax
  10102e:	8e d8                	mov    %eax,%ds
  101030:	8e c0                	mov    %eax,%es
  101032:	8e e0                	mov    %eax,%fs
  101034:	8e e8                	mov    %eax,%gs
  101036:	61                   	popa   
  101037:	83 c4 08             	add    $0x8,%esp
  10103a:	fb                   	sti    
  10103b:	cf                   	iret   

0010103c <cpuid_get_model>:
  10103c:	55                   	push   %ebp
  10103d:	89 e5                	mov    %esp,%ebp
  10103f:	53                   	push   %ebx
  101040:	83 ec 10             	sub    $0x10,%esp
  101043:	b8 00 00 00 00       	mov    $0x0,%eax
  101048:	0f a2                	cpuid  
  10104a:	89 45 f8             	mov    %eax,-0x8(%ebp)
  10104d:	89 5d f4             	mov    %ebx,-0xc(%ebp)
  101050:	89 4d f0             	mov    %ecx,-0x10(%ebp)
  101053:	89 55 ec             	mov    %edx,-0x14(%ebp)
  101056:	8b 45 08             	mov    0x8(%ebp),%eax
  101059:	8b 55 f4             	mov    -0xc(%ebp),%edx
  10105c:	89 10                	mov    %edx,(%eax)
  10105e:	8b 45 0c             	mov    0xc(%ebp),%eax
  101061:	8b 55 ec             	mov    -0x14(%ebp),%edx
  101064:	89 10                	mov    %edx,(%eax)
  101066:	8b 45 10             	mov    0x10(%ebp),%eax
  101069:	8b 55 f0             	mov    -0x10(%ebp),%edx
  10106c:	89 10                	mov    %edx,(%eax)
  10106e:	90                   	nop
  10106f:	8b 5d fc             	mov    -0x4(%ebp),%ebx
  101072:	c9                   	leave  
  101073:	c3                   	ret    

00101074 <cpuid_supported>:
  101074:	9c                   	pushf  
  101075:	9c                   	pushf  
  101076:	81 34 24 00 00 20 00 	xorl   $0x200000,(%esp)
  10107d:	9d                   	popf   
  10107e:	9c                   	pushf  
  10107f:	58                   	pop    %eax
  101080:	31 04 24             	xor    %eax,(%esp)
  101083:	9d                   	popf   
  101084:	25 00 00 20 00       	and    $0x200000,%eax
  101089:	c3                   	ret    

0010108a <enable_paging>:
  10108a:	55                   	push   %ebp
  10108b:	89 e5                	mov    %esp,%ebp
  10108d:	0f 20 c0             	mov    %cr0,%eax
  101090:	0d 00 00 00 80       	or     $0x80000000,%eax
  101095:	0f 22 c0             	mov    %eax,%cr0
  101098:	89 ec                	mov    %ebp,%esp
  10109a:	5d                   	pop    %ebp
  10109b:	c3                   	ret    

0010109c <load_page_directory>:
  10109c:	55                   	push   %ebp
  10109d:	89 e5                	mov    %esp,%ebp
  10109f:	8b 44 24 08          	mov    0x8(%esp),%eax
  1010a3:	0f 22 d8             	mov    %eax,%cr3
  1010a6:	89 ec                	mov    %ebp,%esp
  1010a8:	5d                   	pop    %ebp
  1010a9:	c3                   	ret    

001010aa <copy_page_physical>:
  1010aa:	53                   	push   %ebx
  1010ab:	9c                   	pushf  
  1010ac:	fa                   	cli    
  1010ad:	8b 5c 24 0c          	mov    0xc(%esp),%ebx
  1010b1:	8b 4c 24 10          	mov    0x10(%esp),%ecx
  1010b5:	0f 20 c2             	mov    %cr0,%edx
  1010b8:	81 e2 ff ff ff 7f    	and    $0x7fffffff,%edx
  1010be:	0f 22 c2             	mov    %edx,%cr0
  1010c1:	ba 00 04 00 00       	mov    $0x400,%edx

001010c6 <loop>:
  1010c6:	8b 03                	mov    (%ebx),%eax
  1010c8:	89 01                	mov    %eax,(%ecx)
  1010ca:	83 c3 04             	add    $0x4,%ebx
  1010cd:	83 c1 04             	add    $0x4,%ecx
  1010d0:	4a                   	dec    %edx
  1010d1:	75 f3                	jne    1010c6 <loop>
  1010d3:	0f 20 c2             	mov    %cr0,%edx
  1010d6:	81 ca 00 00 00 80    	or     $0x80000000,%edx
  1010dc:	0f 22 c2             	mov    %edx,%cr0
  1010df:	9d                   	popf   
  1010e0:	5b                   	pop    %ebx
  1010e1:	c3                   	ret    

001010e2 <flush_tlb>:
  1010e2:	0f 20 d8             	mov    %cr3,%eax
  1010e5:	0f 22 d8             	mov    %eax,%cr3

001010e8 <read_eip>:
  1010e8:	58                   	pop    %eax
  1010e9:	ff e0                	jmp    *%eax

001010eb <context_switch>:
  1010eb:	55                   	push   %ebp
  1010ec:	89 e5                	mov    %esp,%ebp
  1010ee:	8b 44 24 08          	mov    0x8(%esp),%eax
  1010f2:	8b 5c 24 0c          	mov    0xc(%esp),%ebx
  1010f6:	8b 4c 24 10          	mov    0x10(%esp),%ecx
  1010fa:	8b 54 24 14          	mov    0x14(%esp),%edx
  1010fe:	fa                   	cli    
  1010ff:	89 dc                	mov    %ebx,%esp
  101101:	89 cd                	mov    %ecx,%ebp
  101103:	0f 22 da             	mov    %edx,%cr3
  101106:	89 c3                	mov    %eax,%ebx
  101108:	b8 ed ad 10 7a       	mov    $0x7a10aded,%eax
  10110d:	fb                   	sti    
  10110e:	ff e3                	jmp    *%ebx

00101110 <syscall_interface>:
  101110:	55                   	push   %ebp
  101111:	89 e5                	mov    %esp,%ebp
  101113:	8b 44 24 08          	mov    0x8(%esp),%eax

00101117 <test_80>:
  101117:	83 f8 50             	cmp    $0x50,%eax
  10111a:	74 02                	je     10111e <trigger_int_80>
  10111c:	eb 14                	jmp    101132 <test_81>

0010111e <trigger_int_80>:
  10111e:	8b 44 24 0c          	mov    0xc(%esp),%eax
  101122:	8b 5c 24 10          	mov    0x10(%esp),%ebx
  101126:	8b 4c 24 14          	mov    0x14(%esp),%ecx
  10112a:	8b 54 24 18          	mov    0x18(%esp),%edx
  10112e:	cd 50                	int    $0x50
  101130:	eb 1b                	jmp    10114d <_exit>

00101132 <test_81>:
  101132:	83 f8 51             	cmp    $0x51,%eax
  101135:	74 02                	je     101139 <trigger_int_81>
  101137:	eb 14                	jmp    10114d <_exit>

00101139 <trigger_int_81>:
  101139:	8b 44 24 0c          	mov    0xc(%esp),%eax
  10113d:	8b 5c 24 10          	mov    0x10(%esp),%ebx
  101141:	8b 4c 24 14          	mov    0x14(%esp),%ecx
  101145:	8b 54 24 18          	mov    0x18(%esp),%edx
  101149:	cd 51                	int    $0x51
  10114b:	eb 00                	jmp    10114d <_exit>

0010114d <_exit>:
  10114d:	c3                   	ret    

0010114e <isr_register>:
  10114e:	55                   	push   %ebp
  10114f:	89 e5                	mov    %esp,%ebp
  101151:	8b 45 08             	mov    0x8(%ebp),%eax
  101154:	8b 55 0c             	mov    0xc(%ebp),%edx
  101157:	89 14 85 20 b0 10 00 	mov    %edx,0x10b020(,%eax,4)
  10115e:	90                   	nop
  10115f:	5d                   	pop    %ebp
  101160:	c3                   	ret    

00101161 <hl_int_dispatcher>:
  101161:	55                   	push   %ebp
  101162:	89 e5                	mov    %esp,%ebp
  101164:	83 ec 18             	sub    $0x18,%esp
  101167:	8b 45 2c             	mov    0x2c(%ebp),%eax
  10116a:	8b 04 85 20 b0 10 00 	mov    0x10b020(,%eax,4),%eax
  101171:	85 c0                	test   %eax,%eax
  101173:	74 44                	je     1011b9 <hl_int_dispatcher+0x58>
  101175:	8b 45 2c             	mov    0x2c(%ebp),%eax
  101178:	8b 04 85 20 b0 10 00 	mov    0x10b020(,%eax,4),%eax
  10117f:	ff 75 44             	push   0x44(%ebp)
  101182:	ff 75 40             	push   0x40(%ebp)
  101185:	ff 75 3c             	push   0x3c(%ebp)
  101188:	ff 75 38             	push   0x38(%ebp)
  10118b:	ff 75 34             	push   0x34(%ebp)
  10118e:	ff 75 30             	push   0x30(%ebp)
  101191:	ff 75 2c             	push   0x2c(%ebp)
  101194:	ff 75 28             	push   0x28(%ebp)
  101197:	ff 75 24             	push   0x24(%ebp)
  10119a:	ff 75 20             	push   0x20(%ebp)
  10119d:	ff 75 1c             	push   0x1c(%ebp)
  1011a0:	ff 75 18             	push   0x18(%ebp)
  1011a3:	ff 75 14             	push   0x14(%ebp)
  1011a6:	ff 75 10             	push   0x10(%ebp)
  1011a9:	ff 75 0c             	push   0xc(%ebp)
  1011ac:	ff 75 08             	push   0x8(%ebp)
  1011af:	ff d0                	call   *%eax
  1011b1:	83 c4 40             	add    $0x40,%esp
  1011b4:	e9 f0 00 00 00       	jmp    1012a9 <hl_int_dispatcher+0x148>
  1011b9:	83 ec 0c             	sub    $0xc,%esp
  1011bc:	68 e0 0d 14 00       	push   $0x140de0
  1011c1:	e8 04 70 00 00       	call   1081ca <__redirect_printf__>
  1011c6:	83 c4 10             	add    $0x10,%esp
  1011c9:	8b 45 2c             	mov    0x2c(%ebp),%eax
  1011cc:	83 ec 08             	sub    $0x8,%esp
  1011cf:	50                   	push   %eax
  1011d0:	68 0c a0 10 00       	push   $0x10a00c
  1011d5:	e8 d8 78 00 00       	call   108ab2 <printf>
  1011da:	83 c4 10             	add    $0x10,%esp
  1011dd:	83 ec 0c             	sub    $0xc,%esp
  1011e0:	6a 00                	push   $0x0
  1011e2:	e8 e3 6f 00 00       	call   1081ca <__redirect_printf__>
  1011e7:	83 c4 10             	add    $0x10,%esp
  1011ea:	83 ec 0c             	sub    $0xc,%esp
  1011ed:	8d 45 f2             	lea    -0xe(%ebp),%eax
  1011f0:	50                   	push   %eax
  1011f1:	e8 b7 14 00 00       	call   1026ad <cmos_read_rtc>
  1011f6:	83 c4 10             	add    $0x10,%esp
  1011f9:	83 ec 04             	sub    $0x4,%esp
  1011fc:	68 cc 11 14 00       	push   $0x1411cc
  101201:	83 ec 08             	sub    $0x8,%esp
  101204:	89 e0                	mov    %esp,%eax
  101206:	8b 55 f2             	mov    -0xe(%ebp),%edx
  101209:	89 10                	mov    %edx,(%eax)
  10120b:	0f b7 55 f6          	movzwl -0xa(%ebp),%edx
  10120f:	66 89 50 04          	mov    %dx,0x4(%eax)
  101213:	e8 fa 38 00 00       	call   104b12 <cmos_datetime_to_str>
  101218:	83 c4 10             	add    $0x10,%esp
  10121b:	83 ec 0c             	sub    $0xc,%esp
  10121e:	68 e0 09 14 00       	push   $0x1409e0
  101223:	e8 a2 6f 00 00       	call   1081ca <__redirect_printf__>
  101228:	83 c4 10             	add    $0x10,%esp
  10122b:	83 ec 04             	sub    $0x4,%esp
  10122e:	68 e0 0d 14 00       	push   $0x140de0
  101233:	68 cc 11 14 00       	push   $0x1411cc
  101238:	68 46 a0 10 00       	push   $0x10a046
  10123d:	e8 70 78 00 00       	call   108ab2 <printf>
  101242:	83 c4 10             	add    $0x10,%esp
  101245:	83 ec 0c             	sub    $0xc,%esp
  101248:	6a 00                	push   $0x0
  10124a:	e8 7b 6f 00 00       	call   1081ca <__redirect_printf__>
  10124f:	83 c4 10             	add    $0x10,%esp
  101252:	83 ec 08             	sub    $0x8,%esp
  101255:	68 e0 09 14 00       	push   $0x1409e0
  10125a:	68 f8 03 00 00       	push   $0x3f8
  10125f:	e8 a6 0f 00 00       	call   10220a <com_write>
  101264:	83 c4 10             	add    $0x10,%esp
  101267:	83 ec 04             	sub    $0x4,%esp
  10126a:	68 00 04 00 00       	push   $0x400
  10126f:	6a 00                	push   $0x0
  101271:	68 e0 09 14 00       	push   $0x1409e0
  101276:	e8 b0 7b 00 00       	call   108e2b <memset>
  10127b:	83 c4 10             	add    $0x10,%esp
  10127e:	83 ec 04             	sub    $0x4,%esp
  101281:	68 ec 03 00 00       	push   $0x3ec
  101286:	6a 00                	push   $0x0
  101288:	68 e0 0d 14 00       	push   $0x140de0
  10128d:	e8 99 7b 00 00       	call   108e2b <memset>
  101292:	83 c4 10             	add    $0x10,%esp
  101295:	83 ec 04             	sub    $0x4,%esp
  101298:	6a 14                	push   $0x14
  10129a:	6a 00                	push   $0x0
  10129c:	68 cc 11 14 00       	push   $0x1411cc
  1012a1:	e8 85 7b 00 00       	call   108e2b <memset>
  1012a6:	83 c4 10             	add    $0x10,%esp
  1012a9:	90                   	nop
  1012aa:	c9                   	leave  
  1012ab:	c3                   	ret    

001012ac <hl_irq_dispatcher>:
  1012ac:	55                   	push   %ebp
  1012ad:	89 e5                	mov    %esp,%ebp
  1012af:	83 ec 08             	sub    $0x8,%esp
  1012b2:	8b 45 2c             	mov    0x2c(%ebp),%eax
  1012b5:	83 f8 27             	cmp    $0x27,%eax
  1012b8:	76 05                	jbe    1012bf <hl_irq_dispatcher+0x13>
  1012ba:	e8 4b 06 00 00       	call   10190a <pic_reset_slave>
  1012bf:	e8 1f 06 00 00       	call   1018e3 <pic_reset_master>
  1012c4:	ff 75 44             	push   0x44(%ebp)
  1012c7:	ff 75 40             	push   0x40(%ebp)
  1012ca:	ff 75 3c             	push   0x3c(%ebp)
  1012cd:	ff 75 38             	push   0x38(%ebp)
  1012d0:	ff 75 34             	push   0x34(%ebp)
  1012d3:	ff 75 30             	push   0x30(%ebp)
  1012d6:	ff 75 2c             	push   0x2c(%ebp)
  1012d9:	ff 75 28             	push   0x28(%ebp)
  1012dc:	ff 75 24             	push   0x24(%ebp)
  1012df:	ff 75 20             	push   0x20(%ebp)
  1012e2:	ff 75 1c             	push   0x1c(%ebp)
  1012e5:	ff 75 18             	push   0x18(%ebp)
  1012e8:	ff 75 14             	push   0x14(%ebp)
  1012eb:	ff 75 10             	push   0x10(%ebp)
  1012ee:	ff 75 0c             	push   0xc(%ebp)
  1012f1:	ff 75 08             	push   0x8(%ebp)
  1012f4:	e8 68 fe ff ff       	call   101161 <hl_int_dispatcher>
  1012f9:	83 c4 40             	add    $0x40,%esp
  1012fc:	90                   	nop
  1012fd:	c9                   	leave  
  1012fe:	c3                   	ret    

001012ff <unhandled_interrupt>:
  1012ff:	55                   	push   %ebp
  101300:	89 e5                	mov    %esp,%ebp
  101302:	83 ec 18             	sub    $0x18,%esp
  101305:	83 ec 0c             	sub    $0xc,%esp
  101308:	68 e0 0d 14 00       	push   $0x140de0
  10130d:	e8 b8 6e 00 00       	call   1081ca <__redirect_printf__>
  101312:	83 c4 10             	add    $0x10,%esp
  101315:	8b 45 2c             	mov    0x2c(%ebp),%eax
  101318:	83 ec 08             	sub    $0x8,%esp
  10131b:	50                   	push   %eax
  10131c:	68 4c a0 10 00       	push   $0x10a04c
  101321:	e8 8c 77 00 00       	call   108ab2 <printf>
  101326:	83 c4 10             	add    $0x10,%esp
  101329:	83 ec 0c             	sub    $0xc,%esp
  10132c:	6a 00                	push   $0x0
  10132e:	e8 97 6e 00 00       	call   1081ca <__redirect_printf__>
  101333:	83 c4 10             	add    $0x10,%esp
  101336:	83 ec 0c             	sub    $0xc,%esp
  101339:	8d 45 f2             	lea    -0xe(%ebp),%eax
  10133c:	50                   	push   %eax
  10133d:	e8 6b 13 00 00       	call   1026ad <cmos_read_rtc>
  101342:	83 c4 10             	add    $0x10,%esp
  101345:	83 ec 04             	sub    $0x4,%esp
  101348:	68 cc 11 14 00       	push   $0x1411cc
  10134d:	83 ec 08             	sub    $0x8,%esp
  101350:	89 e0                	mov    %esp,%eax
  101352:	8b 55 f2             	mov    -0xe(%ebp),%edx
  101355:	89 10                	mov    %edx,(%eax)
  101357:	0f b7 55 f6          	movzwl -0xa(%ebp),%edx
  10135b:	66 89 50 04          	mov    %dx,0x4(%eax)
  10135f:	e8 ae 37 00 00       	call   104b12 <cmos_datetime_to_str>
  101364:	83 c4 10             	add    $0x10,%esp
  101367:	83 ec 0c             	sub    $0xc,%esp
  10136a:	68 e0 09 14 00       	push   $0x1409e0
  10136f:	e8 56 6e 00 00       	call   1081ca <__redirect_printf__>
  101374:	83 c4 10             	add    $0x10,%esp
  101377:	83 ec 04             	sub    $0x4,%esp
  10137a:	68 e0 0d 14 00       	push   $0x140de0
  10137f:	68 cc 11 14 00       	push   $0x1411cc
  101384:	68 46 a0 10 00       	push   $0x10a046
  101389:	e8 24 77 00 00       	call   108ab2 <printf>
  10138e:	83 c4 10             	add    $0x10,%esp
  101391:	83 ec 0c             	sub    $0xc,%esp
  101394:	6a 00                	push   $0x0
  101396:	e8 2f 6e 00 00       	call   1081ca <__redirect_printf__>
  10139b:	83 c4 10             	add    $0x10,%esp
  10139e:	83 ec 08             	sub    $0x8,%esp
  1013a1:	68 e0 09 14 00       	push   $0x1409e0
  1013a6:	68 f8 03 00 00       	push   $0x3f8
  1013ab:	e8 5a 0e 00 00       	call   10220a <com_write>
  1013b0:	83 c4 10             	add    $0x10,%esp
  1013b3:	83 ec 04             	sub    $0x4,%esp
  1013b6:	68 00 04 00 00       	push   $0x400
  1013bb:	6a 00                	push   $0x0
  1013bd:	68 e0 09 14 00       	push   $0x1409e0
  1013c2:	e8 64 7a 00 00       	call   108e2b <memset>
  1013c7:	83 c4 10             	add    $0x10,%esp
  1013ca:	83 ec 04             	sub    $0x4,%esp
  1013cd:	68 ec 03 00 00       	push   $0x3ec
  1013d2:	6a 00                	push   $0x0
  1013d4:	68 e0 0d 14 00       	push   $0x140de0
  1013d9:	e8 4d 7a 00 00       	call   108e2b <memset>
  1013de:	83 c4 10             	add    $0x10,%esp
  1013e1:	83 ec 04             	sub    $0x4,%esp
  1013e4:	6a 14                	push   $0x14
  1013e6:	6a 00                	push   $0x0
  1013e8:	68 cc 11 14 00       	push   $0x1411cc
  1013ed:	e8 39 7a 00 00       	call   108e2b <memset>
  1013f2:	83 c4 10             	add    $0x10,%esp
  1013f5:	90                   	nop
  1013f6:	c9                   	leave  
  1013f7:	c3                   	ret    

001013f8 <divide_by_zero_exception>:
  1013f8:	55                   	push   %ebp
  1013f9:	89 e5                	mov    %esp,%ebp
  1013fb:	83 ec 08             	sub    $0x8,%esp
  1013fe:	83 ec 0c             	sub    $0xc,%esp
  101401:	68 68 a0 10 00       	push   $0x10a068
  101406:	e8 a7 76 00 00       	call   108ab2 <printf>
  10140b:	83 c4 10             	add    $0x10,%esp
  10140e:	e8 4f 79 00 00       	call   108d62 <abort>

00101413 <undef_opcode_exception>:
  101413:	55                   	push   %ebp
  101414:	89 e5                	mov    %esp,%ebp
  101416:	83 ec 18             	sub    $0x18,%esp
  101419:	e8 ca fc ff ff       	call   1010e8 <read_eip>
  10141e:	89 45 f4             	mov    %eax,-0xc(%ebp)
  101421:	83 ec 08             	sub    $0x8,%esp
  101424:	ff 75 f4             	push   -0xc(%ebp)
  101427:	68 90 a0 10 00       	push   $0x10a090
  10142c:	e8 81 76 00 00       	call   108ab2 <printf>
  101431:	83 c4 10             	add    $0x10,%esp
  101434:	e8 29 79 00 00       	call   108d62 <abort>

00101439 <gpf_exception>:
  101439:	55                   	push   %ebp
  10143a:	89 e5                	mov    %esp,%ebp
  10143c:	83 ec 08             	sub    $0x8,%esp
  10143f:	83 ec 0c             	sub    $0xc,%esp
  101442:	68 bc a0 10 00       	push   $0x10a0bc
  101447:	e8 66 76 00 00       	call   108ab2 <printf>
  10144c:	83 c4 10             	add    $0x10,%esp
  10144f:	e8 0e 79 00 00       	call   108d62 <abort>

00101454 <page_fault_exception>:
  101454:	55                   	push   %ebp
  101455:	89 e5                	mov    %esp,%ebp
  101457:	83 ec 28             	sub    $0x28,%esp
  10145a:	0f 20 d0             	mov    %cr2,%eax
  10145d:	89 45 f4             	mov    %eax,-0xc(%ebp)
  101460:	8b 45 30             	mov    0x30(%ebp),%eax
  101463:	83 e0 01             	and    $0x1,%eax
  101466:	89 45 f0             	mov    %eax,-0x10(%ebp)
  101469:	8b 45 30             	mov    0x30(%ebp),%eax
  10146c:	d1 e8                	shr    %eax
  10146e:	83 e0 01             	and    $0x1,%eax
  101471:	89 45 ec             	mov    %eax,-0x14(%ebp)
  101474:	8b 45 30             	mov    0x30(%ebp),%eax
  101477:	c1 e8 02             	shr    $0x2,%eax
  10147a:	83 e0 01             	and    $0x1,%eax
  10147d:	89 45 e8             	mov    %eax,-0x18(%ebp)
  101480:	8b 45 30             	mov    0x30(%ebp),%eax
  101483:	c1 e8 03             	shr    $0x3,%eax
  101486:	83 e0 01             	and    $0x1,%eax
  101489:	89 45 e4             	mov    %eax,-0x1c(%ebp)
  10148c:	8b 45 30             	mov    0x30(%ebp),%eax
  10148f:	c1 e8 04             	shr    $0x4,%eax
  101492:	83 e0 01             	and    $0x1,%eax
  101495:	89 45 e0             	mov    %eax,-0x20(%ebp)
  101498:	83 ec 04             	sub    $0x4,%esp
  10149b:	ff 75 f4             	push   -0xc(%ebp)
  10149e:	ff 75 e0             	push   -0x20(%ebp)
  1014a1:	ff 75 e4             	push   -0x1c(%ebp)
  1014a4:	ff 75 e8             	push   -0x18(%ebp)
  1014a7:	ff 75 ec             	push   -0x14(%ebp)
  1014aa:	ff 75 f0             	push   -0x10(%ebp)
  1014ad:	68 e8 a0 10 00       	push   $0x10a0e8
  1014b2:	e8 fb 75 00 00       	call   108ab2 <printf>
  1014b7:	83 c4 20             	add    $0x20,%esp
  1014ba:	e8 a3 78 00 00       	call   108d62 <abort>

001014bf <sys_write>:
  1014bf:	55                   	push   %ebp
  1014c0:	89 e5                	mov    %esp,%ebp
  1014c2:	83 ec 38             	sub    $0x38,%esp
  1014c5:	8b 45 28             	mov    0x28(%ebp),%eax
  1014c8:	89 45 e8             	mov    %eax,-0x18(%ebp)
  1014cb:	8b 45 1c             	mov    0x1c(%ebp),%eax
  1014ce:	89 45 e4             	mov    %eax,-0x1c(%ebp)
  1014d1:	8b 45 24             	mov    0x24(%ebp),%eax
  1014d4:	89 45 e0             	mov    %eax,-0x20(%ebp)
  1014d7:	8b 45 20             	mov    0x20(%ebp),%eax
  1014da:	89 45 dc             	mov    %eax,-0x24(%ebp)
  1014dd:	83 7d e8 03          	cmpl   $0x3,-0x18(%ebp)
  1014e1:	0f 84 c0 00 00 00    	je     1015a7 <sys_write+0xe8>
  1014e7:	83 7d e8 03          	cmpl   $0x3,-0x18(%ebp)
  1014eb:	0f 87 f6 00 00 00    	ja     1015e7 <sys_write+0x128>
  1014f1:	83 7d e8 02          	cmpl   $0x2,-0x18(%ebp)
  1014f5:	74 72                	je     101569 <sys_write+0xaa>
  1014f7:	83 7d e8 02          	cmpl   $0x2,-0x18(%ebp)
  1014fb:	0f 87 e6 00 00 00    	ja     1015e7 <sys_write+0x128>
  101501:	83 7d e8 00          	cmpl   $0x0,-0x18(%ebp)
  101505:	74 0b                	je     101512 <sys_write+0x53>
  101507:	83 7d e8 01          	cmpl   $0x1,-0x18(%ebp)
  10150b:	74 21                	je     10152e <sys_write+0x6f>
  10150d:	e9 d5 00 00 00       	jmp    1015e7 <sys_write+0x128>
  101512:	8b 45 e4             	mov    -0x1c(%ebp),%eax
  101515:	89 45 cc             	mov    %eax,-0x34(%ebp)
  101518:	83 ec 08             	sub    $0x8,%esp
  10151b:	ff 75 e4             	push   -0x1c(%ebp)
  10151e:	ff 75 cc             	push   -0x34(%ebp)
  101521:	e8 ed ef ff ff       	call   100513 <tty_putchars>
  101526:	83 c4 10             	add    $0x10,%esp
  101529:	e9 ba 00 00 00       	jmp    1015e8 <sys_write+0x129>
  10152e:	8b 45 e4             	mov    -0x1c(%ebp),%eax
  101531:	89 45 d0             	mov    %eax,-0x30(%ebp)
  101534:	c7 45 f4 00 00 00 00 	movl   $0x0,-0xc(%ebp)
  10153b:	eb 22                	jmp    10155f <sys_write+0xa0>
  10153d:	8b 55 d0             	mov    -0x30(%ebp),%edx
  101540:	8b 45 f4             	mov    -0xc(%ebp),%eax
  101543:	01 d0                	add    %edx,%eax
  101545:	0f b6 00             	movzbl (%eax),%eax
  101548:	0f b6 d0             	movzbl %al,%edx
  10154b:	8b 45 dc             	mov    -0x24(%ebp),%eax
  10154e:	83 ec 08             	sub    $0x8,%esp
  101551:	52                   	push   %edx
  101552:	50                   	push   %eax
  101553:	e8 68 f1 ff ff       	call   1006c0 <outb>
  101558:	83 c4 10             	add    $0x10,%esp
  10155b:	83 45 f4 01          	addl   $0x1,-0xc(%ebp)
  10155f:	8b 45 f4             	mov    -0xc(%ebp),%eax
  101562:	3b 45 e0             	cmp    -0x20(%ebp),%eax
  101565:	72 d6                	jb     10153d <sys_write+0x7e>
  101567:	eb 7f                	jmp    1015e8 <sys_write+0x129>
  101569:	8b 45 e4             	mov    -0x1c(%ebp),%eax
  10156c:	89 45 d4             	mov    %eax,-0x2c(%ebp)
  10156f:	c7 45 f0 00 00 00 00 	movl   $0x0,-0x10(%ebp)
  101576:	eb 25                	jmp    10159d <sys_write+0xde>
  101578:	8b 45 f0             	mov    -0x10(%ebp),%eax
  10157b:	8d 14 00             	lea    (%eax,%eax,1),%edx
  10157e:	8b 45 d4             	mov    -0x2c(%ebp),%eax
  101581:	01 d0                	add    %edx,%eax
  101583:	0f b7 00             	movzwl (%eax),%eax
  101586:	0f b7 d0             	movzwl %ax,%edx
  101589:	8b 45 dc             	mov    -0x24(%ebp),%eax
  10158c:	83 ec 08             	sub    $0x8,%esp
  10158f:	52                   	push   %edx
  101590:	50                   	push   %eax
  101591:	e8 54 f1 ff ff       	call   1006ea <outw>
  101596:	83 c4 10             	add    $0x10,%esp
  101599:	83 45 f0 01          	addl   $0x1,-0x10(%ebp)
  10159d:	8b 45 f0             	mov    -0x10(%ebp),%eax
  1015a0:	3b 45 e0             	cmp    -0x20(%ebp),%eax
  1015a3:	72 d3                	jb     101578 <sys_write+0xb9>
  1015a5:	eb 41                	jmp    1015e8 <sys_write+0x129>
  1015a7:	8b 45 e4             	mov    -0x1c(%ebp),%eax
  1015aa:	89 45 d8             	mov    %eax,-0x28(%ebp)
  1015ad:	c7 45 ec 00 00 00 00 	movl   $0x0,-0x14(%ebp)
  1015b4:	eb 27                	jmp    1015dd <sys_write+0x11e>
  1015b6:	8b 45 ec             	mov    -0x14(%ebp),%eax
  1015b9:	8d 14 85 00 00 00 00 	lea    0x0(,%eax,4),%edx
  1015c0:	8b 45 d8             	mov    -0x28(%ebp),%eax
  1015c3:	01 d0                	add    %edx,%eax
  1015c5:	8b 00                	mov    (%eax),%eax
  1015c7:	89 c2                	mov    %eax,%edx
  1015c9:	8b 45 dc             	mov    -0x24(%ebp),%eax
  1015cc:	83 ec 08             	sub    $0x8,%esp
  1015cf:	52                   	push   %edx
  1015d0:	50                   	push   %eax
  1015d1:	e8 3d f1 ff ff       	call   100713 <outl>
  1015d6:	83 c4 10             	add    $0x10,%esp
  1015d9:	83 45 ec 01          	addl   $0x1,-0x14(%ebp)
  1015dd:	8b 45 ec             	mov    -0x14(%ebp),%eax
  1015e0:	3b 45 e0             	cmp    -0x20(%ebp),%eax
  1015e3:	72 d1                	jb     1015b6 <sys_write+0xf7>
  1015e5:	eb 01                	jmp    1015e8 <sys_write+0x129>
  1015e7:	90                   	nop
  1015e8:	90                   	nop
  1015e9:	c9                   	leave  
  1015ea:	c3                   	ret    

001015eb <sys_read>:
  1015eb:	55                   	push   %ebp
  1015ec:	89 e5                	mov    %esp,%ebp
  1015ee:	83 ec 28             	sub    $0x28,%esp
  1015f1:	8b 45 28             	mov    0x28(%ebp),%eax
  1015f4:	89 45 f4             	mov    %eax,-0xc(%ebp)
  1015f7:	8b 45 1c             	mov    0x1c(%ebp),%eax
  1015fa:	89 45 f0             	mov    %eax,-0x10(%ebp)
  1015fd:	8b 45 24             	mov    0x24(%ebp),%eax
  101600:	89 45 ec             	mov    %eax,-0x14(%ebp)
  101603:	83 7d f4 06          	cmpl   $0x6,-0xc(%ebp)
  101607:	0f 84 bc 00 00 00    	je     1016c9 <sys_read+0xde>
  10160d:	83 7d f4 06          	cmpl   $0x6,-0xc(%ebp)
  101611:	0f 87 01 01 00 00    	ja     101718 <sys_read+0x12d>
  101617:	83 7d f4 04          	cmpl   $0x4,-0xc(%ebp)
  10161b:	74 0b                	je     101628 <sys_read+0x3d>
  10161d:	83 7d f4 05          	cmpl   $0x5,-0xc(%ebp)
  101621:	74 57                	je     10167a <sys_read+0x8f>
  101623:	e9 f0 00 00 00       	jmp    101718 <sys_read+0x12d>
  101628:	8b 45 f0             	mov    -0x10(%ebp),%eax
  10162b:	89 45 e0             	mov    %eax,-0x20(%ebp)
  10162e:	83 ec 04             	sub    $0x4,%esp
  101631:	ff 75 ec             	push   -0x14(%ebp)
  101634:	ff 75 e0             	push   -0x20(%ebp)
  101637:	68 f8 03 00 00       	push   $0x3f8
  10163c:	e8 c1 0c 00 00       	call   102302 <com_read>
  101641:	83 c4 10             	add    $0x10,%esp
  101644:	83 ec 0c             	sub    $0xc,%esp
  101647:	68 58 a1 10 00       	push   $0x10a158
  10164c:	e8 fb ee ff ff       	call   10054c <tty_putstring>
  101651:	83 c4 10             	add    $0x10,%esp
  101654:	83 ec 08             	sub    $0x8,%esp
  101657:	ff 75 ec             	push   -0x14(%ebp)
  10165a:	ff 75 e0             	push   -0x20(%ebp)
  10165d:	e8 b1 ee ff ff       	call   100513 <tty_putchars>
  101662:	83 c4 10             	add    $0x10,%esp
  101665:	83 ec 0c             	sub    $0xc,%esp
  101668:	68 63 a1 10 00       	push   $0x10a163
  10166d:	e8 da ee ff ff       	call   10054c <tty_putstring>
  101672:	83 c4 10             	add    $0x10,%esp
  101675:	e9 9f 00 00 00       	jmp    101719 <sys_read+0x12e>
  10167a:	8b 45 f0             	mov    -0x10(%ebp),%eax
  10167d:	89 45 e4             	mov    %eax,-0x1c(%ebp)
  101680:	83 ec 04             	sub    $0x4,%esp
  101683:	ff 75 ec             	push   -0x14(%ebp)
  101686:	ff 75 e4             	push   -0x1c(%ebp)
  101689:	68 f8 02 00 00       	push   $0x2f8
  10168e:	e8 6f 0c 00 00       	call   102302 <com_read>
  101693:	83 c4 10             	add    $0x10,%esp
  101696:	83 ec 0c             	sub    $0xc,%esp
  101699:	68 65 a1 10 00       	push   $0x10a165
  10169e:	e8 a9 ee ff ff       	call   10054c <tty_putstring>
  1016a3:	83 c4 10             	add    $0x10,%esp
  1016a6:	83 ec 08             	sub    $0x8,%esp
  1016a9:	ff 75 ec             	push   -0x14(%ebp)
  1016ac:	ff 75 e4             	push   -0x1c(%ebp)
  1016af:	e8 5f ee ff ff       	call   100513 <tty_putchars>
  1016b4:	83 c4 10             	add    $0x10,%esp
  1016b7:	83 ec 0c             	sub    $0xc,%esp
  1016ba:	68 63 a1 10 00       	push   $0x10a163
  1016bf:	e8 88 ee ff ff       	call   10054c <tty_putstring>
  1016c4:	83 c4 10             	add    $0x10,%esp
  1016c7:	eb 50                	jmp    101719 <sys_read+0x12e>
  1016c9:	8b 45 f0             	mov    -0x10(%ebp),%eax
  1016cc:	89 45 e8             	mov    %eax,-0x18(%ebp)
  1016cf:	83 ec 04             	sub    $0x4,%esp
  1016d2:	ff 75 ec             	push   -0x14(%ebp)
  1016d5:	ff 75 e8             	push   -0x18(%ebp)
  1016d8:	68 e8 03 00 00       	push   $0x3e8
  1016dd:	e8 20 0c 00 00       	call   102302 <com_read>
  1016e2:	83 c4 10             	add    $0x10,%esp
  1016e5:	83 ec 0c             	sub    $0xc,%esp
  1016e8:	68 70 a1 10 00       	push   $0x10a170
  1016ed:	e8 5a ee ff ff       	call   10054c <tty_putstring>
  1016f2:	83 c4 10             	add    $0x10,%esp
  1016f5:	83 ec 08             	sub    $0x8,%esp
  1016f8:	ff 75 ec             	push   -0x14(%ebp)
  1016fb:	ff 75 e8             	push   -0x18(%ebp)
  1016fe:	e8 10 ee ff ff       	call   100513 <tty_putchars>
  101703:	83 c4 10             	add    $0x10,%esp
  101706:	83 ec 0c             	sub    $0xc,%esp
  101709:	68 63 a1 10 00       	push   $0x10a163
  10170e:	e8 39 ee ff ff       	call   10054c <tty_putstring>
  101713:	83 c4 10             	add    $0x10,%esp
  101716:	eb 01                	jmp    101719 <sys_read+0x12e>
  101718:	90                   	nop
  101719:	90                   	nop
  10171a:	c9                   	leave  
  10171b:	c3                   	ret    

0010171c <syscall_init>:
  10171c:	55                   	push   %ebp
  10171d:	89 e5                	mov    %esp,%ebp
  10171f:	83 ec 18             	sub    $0x18,%esp
  101722:	83 ec 08             	sub    $0x8,%esp
  101725:	68 eb 15 10 00       	push   $0x1015eb
  10172a:	6a 50                	push   $0x50
  10172c:	e8 1d fa ff ff       	call   10114e <isr_register>
  101731:	83 c4 10             	add    $0x10,%esp
  101734:	83 ec 08             	sub    $0x8,%esp
  101737:	68 bf 14 10 00       	push   $0x1014bf
  10173c:	6a 51                	push   $0x51
  10173e:	e8 0b fa ff ff       	call   10114e <isr_register>
  101743:	83 c4 10             	add    $0x10,%esp
  101746:	83 ec 0c             	sub    $0xc,%esp
  101749:	68 e0 0d 14 00       	push   $0x140de0
  10174e:	e8 77 6a 00 00       	call   1081ca <__redirect_printf__>
  101753:	83 c4 10             	add    $0x10,%esp
  101756:	83 ec 0c             	sub    $0xc,%esp
  101759:	68 7b a1 10 00       	push   $0x10a17b
  10175e:	e8 4f 73 00 00       	call   108ab2 <printf>
  101763:	83 c4 10             	add    $0x10,%esp
  101766:	83 ec 0c             	sub    $0xc,%esp
  101769:	6a 00                	push   $0x0
  10176b:	e8 5a 6a 00 00       	call   1081ca <__redirect_printf__>
  101770:	83 c4 10             	add    $0x10,%esp
  101773:	83 ec 0c             	sub    $0xc,%esp
  101776:	8d 45 f2             	lea    -0xe(%ebp),%eax
  101779:	50                   	push   %eax
  10177a:	e8 2e 0f 00 00       	call   1026ad <cmos_read_rtc>
  10177f:	83 c4 10             	add    $0x10,%esp
  101782:	83 ec 04             	sub    $0x4,%esp
  101785:	68 cc 11 14 00       	push   $0x1411cc
  10178a:	83 ec 08             	sub    $0x8,%esp
  10178d:	89 e0                	mov    %esp,%eax
  10178f:	8b 55 f2             	mov    -0xe(%ebp),%edx
  101792:	89 10                	mov    %edx,(%eax)
  101794:	0f b7 55 f6          	movzwl -0xa(%ebp),%edx
  101798:	66 89 50 04          	mov    %dx,0x4(%eax)
  10179c:	e8 71 33 00 00       	call   104b12 <cmos_datetime_to_str>
  1017a1:	83 c4 10             	add    $0x10,%esp
  1017a4:	83 ec 0c             	sub    $0xc,%esp
  1017a7:	68 e0 09 14 00       	push   $0x1409e0
  1017ac:	e8 19 6a 00 00       	call   1081ca <__redirect_printf__>
  1017b1:	83 c4 10             	add    $0x10,%esp
  1017b4:	83 ec 04             	sub    $0x4,%esp
  1017b7:	68 e0 0d 14 00       	push   $0x140de0
  1017bc:	68 cc 11 14 00       	push   $0x1411cc
  1017c1:	68 8b a1 10 00       	push   $0x10a18b
  1017c6:	e8 e7 72 00 00       	call   108ab2 <printf>
  1017cb:	83 c4 10             	add    $0x10,%esp
  1017ce:	83 ec 0c             	sub    $0xc,%esp
  1017d1:	6a 00                	push   $0x0
  1017d3:	e8 f2 69 00 00       	call   1081ca <__redirect_printf__>
  1017d8:	83 c4 10             	add    $0x10,%esp
  1017db:	83 ec 08             	sub    $0x8,%esp
  1017de:	68 e0 09 14 00       	push   $0x1409e0
  1017e3:	68 f8 03 00 00       	push   $0x3f8
  1017e8:	e8 1d 0a 00 00       	call   10220a <com_write>
  1017ed:	83 c4 10             	add    $0x10,%esp
  1017f0:	83 ec 04             	sub    $0x4,%esp
  1017f3:	68 00 04 00 00       	push   $0x400
  1017f8:	6a 00                	push   $0x0
  1017fa:	68 e0 09 14 00       	push   $0x1409e0
  1017ff:	e8 27 76 00 00       	call   108e2b <memset>
  101804:	83 c4 10             	add    $0x10,%esp
  101807:	83 ec 04             	sub    $0x4,%esp
  10180a:	68 ec 03 00 00       	push   $0x3ec
  10180f:	6a 00                	push   $0x0
  101811:	68 e0 0d 14 00       	push   $0x140de0
  101816:	e8 10 76 00 00       	call   108e2b <memset>
  10181b:	83 c4 10             	add    $0x10,%esp
  10181e:	83 ec 04             	sub    $0x4,%esp
  101821:	6a 14                	push   $0x14
  101823:	6a 00                	push   $0x0
  101825:	68 cc 11 14 00       	push   $0x1411cc
  10182a:	e8 fc 75 00 00       	call   108e2b <memset>
  10182f:	83 c4 10             	add    $0x10,%esp
  101832:	90                   	nop
  101833:	c9                   	leave  
  101834:	c3                   	ret    

00101835 <pic_remap>:
  101835:	55                   	push   %ebp
  101836:	89 e5                	mov    %esp,%ebp
  101838:	83 ec 08             	sub    $0x8,%esp
  10183b:	83 ec 08             	sub    $0x8,%esp
  10183e:	6a 11                	push   $0x11
  101840:	6a 20                	push   $0x20
  101842:	e8 79 ee ff ff       	call   1006c0 <outb>
  101847:	83 c4 10             	add    $0x10,%esp
  10184a:	83 ec 08             	sub    $0x8,%esp
  10184d:	6a 11                	push   $0x11
  10184f:	68 a0 00 00 00       	push   $0xa0
  101854:	e8 67 ee ff ff       	call   1006c0 <outb>
  101859:	83 c4 10             	add    $0x10,%esp
  10185c:	83 ec 08             	sub    $0x8,%esp
  10185f:	6a 20                	push   $0x20
  101861:	6a 21                	push   $0x21
  101863:	e8 58 ee ff ff       	call   1006c0 <outb>
  101868:	83 c4 10             	add    $0x10,%esp
  10186b:	83 ec 08             	sub    $0x8,%esp
  10186e:	6a 28                	push   $0x28
  101870:	68 a1 00 00 00       	push   $0xa1
  101875:	e8 46 ee ff ff       	call   1006c0 <outb>
  10187a:	83 c4 10             	add    $0x10,%esp
  10187d:	83 ec 08             	sub    $0x8,%esp
  101880:	6a 04                	push   $0x4
  101882:	6a 21                	push   $0x21
  101884:	e8 37 ee ff ff       	call   1006c0 <outb>
  101889:	83 c4 10             	add    $0x10,%esp
  10188c:	83 ec 08             	sub    $0x8,%esp
  10188f:	6a 02                	push   $0x2
  101891:	68 a1 00 00 00       	push   $0xa1
  101896:	e8 25 ee ff ff       	call   1006c0 <outb>
  10189b:	83 c4 10             	add    $0x10,%esp
  10189e:	83 ec 08             	sub    $0x8,%esp
  1018a1:	6a 01                	push   $0x1
  1018a3:	6a 21                	push   $0x21
  1018a5:	e8 16 ee ff ff       	call   1006c0 <outb>
  1018aa:	83 c4 10             	add    $0x10,%esp
  1018ad:	83 ec 08             	sub    $0x8,%esp
  1018b0:	6a 01                	push   $0x1
  1018b2:	68 a1 00 00 00       	push   $0xa1
  1018b7:	e8 04 ee ff ff       	call   1006c0 <outb>
  1018bc:	83 c4 10             	add    $0x10,%esp
  1018bf:	83 ec 08             	sub    $0x8,%esp
  1018c2:	6a 00                	push   $0x0
  1018c4:	6a 21                	push   $0x21
  1018c6:	e8 f5 ed ff ff       	call   1006c0 <outb>
  1018cb:	83 c4 10             	add    $0x10,%esp
  1018ce:	83 ec 08             	sub    $0x8,%esp
  1018d1:	6a 00                	push   $0x0
  1018d3:	68 a1 00 00 00       	push   $0xa1
  1018d8:	e8 e3 ed ff ff       	call   1006c0 <outb>
  1018dd:	83 c4 10             	add    $0x10,%esp
  1018e0:	90                   	nop
  1018e1:	c9                   	leave  
  1018e2:	c3                   	ret    

001018e3 <pic_reset_master>:
  1018e3:	55                   	push   %ebp
  1018e4:	89 e5                	mov    %esp,%ebp
  1018e6:	83 ec 08             	sub    $0x8,%esp
  1018e9:	83 ec 08             	sub    $0x8,%esp
  1018ec:	6a 20                	push   $0x20
  1018ee:	6a 20                	push   $0x20
  1018f0:	e8 cb ed ff ff       	call   1006c0 <outb>
  1018f5:	83 c4 10             	add    $0x10,%esp
  1018f8:	83 ec 08             	sub    $0x8,%esp
  1018fb:	6a 20                	push   $0x20
  1018fd:	6a 21                	push   $0x21
  1018ff:	e8 bc ed ff ff       	call   1006c0 <outb>
  101904:	83 c4 10             	add    $0x10,%esp
  101907:	90                   	nop
  101908:	c9                   	leave  
  101909:	c3                   	ret    

0010190a <pic_reset_slave>:
  10190a:	55                   	push   %ebp
  10190b:	89 e5                	mov    %esp,%ebp
  10190d:	83 ec 08             	sub    $0x8,%esp
  101910:	83 ec 08             	sub    $0x8,%esp
  101913:	6a 20                	push   $0x20
  101915:	68 a0 00 00 00       	push   $0xa0
  10191a:	e8 a1 ed ff ff       	call   1006c0 <outb>
  10191f:	83 c4 10             	add    $0x10,%esp
  101922:	83 ec 08             	sub    $0x8,%esp
  101925:	6a 20                	push   $0x20
  101927:	68 a1 00 00 00       	push   $0xa1
  10192c:	e8 8f ed ff ff       	call   1006c0 <outb>
  101931:	83 c4 10             	add    $0x10,%esp
  101934:	90                   	nop
  101935:	c9                   	leave  
  101936:	c3                   	ret    

00101937 <ps2_controller_init>:
  101937:	55                   	push   %ebp
  101938:	89 e5                	mov    %esp,%ebp
  10193a:	83 ec 28             	sub    $0x28,%esp
  10193d:	c6 05 91 08 11 00 00 	movb   $0x0,0x110891
  101944:	c6 05 90 08 11 00 00 	movb   $0x0,0x110890
  10194b:	e8 4f 1f 00 00       	call   10389f <acpi_get_boot_arch_flags>
  101950:	66 89 45 f6          	mov    %ax,-0xa(%ebp)
  101954:	83 ec 0c             	sub    $0xc,%esp
  101957:	68 e0 0d 14 00       	push   $0x140de0
  10195c:	e8 69 68 00 00       	call   1081ca <__redirect_printf__>
  101961:	83 c4 10             	add    $0x10,%esp
  101964:	0f b7 45 f6          	movzwl -0xa(%ebp),%eax
  101968:	83 ec 08             	sub    $0x8,%esp
  10196b:	50                   	push   %eax
  10196c:	68 94 a1 10 00       	push   $0x10a194
  101971:	e8 3c 71 00 00       	call   108ab2 <printf>
  101976:	83 c4 10             	add    $0x10,%esp
  101979:	83 ec 0c             	sub    $0xc,%esp
  10197c:	6a 00                	push   $0x0
  10197e:	e8 47 68 00 00       	call   1081ca <__redirect_printf__>
  101983:	83 c4 10             	add    $0x10,%esp
  101986:	83 ec 0c             	sub    $0xc,%esp
  101989:	8d 45 eb             	lea    -0x15(%ebp),%eax
  10198c:	50                   	push   %eax
  10198d:	e8 1b 0d 00 00       	call   1026ad <cmos_read_rtc>
  101992:	83 c4 10             	add    $0x10,%esp
  101995:	83 ec 04             	sub    $0x4,%esp
  101998:	68 cc 11 14 00       	push   $0x1411cc
  10199d:	83 ec 08             	sub    $0x8,%esp
  1019a0:	89 e0                	mov    %esp,%eax
  1019a2:	8b 55 eb             	mov    -0x15(%ebp),%edx
  1019a5:	89 10                	mov    %edx,(%eax)
  1019a7:	0f b7 55 ef          	movzwl -0x11(%ebp),%edx
  1019ab:	66 89 50 04          	mov    %dx,0x4(%eax)
  1019af:	e8 5e 31 00 00       	call   104b12 <cmos_datetime_to_str>
  1019b4:	83 c4 10             	add    $0x10,%esp
  1019b7:	83 ec 0c             	sub    $0xc,%esp
  1019ba:	68 e0 09 14 00       	push   $0x1409e0
  1019bf:	e8 06 68 00 00       	call   1081ca <__redirect_printf__>
  1019c4:	83 c4 10             	add    $0x10,%esp
  1019c7:	83 ec 04             	sub    $0x4,%esp
  1019ca:	68 e0 0d 14 00       	push   $0x140de0
  1019cf:	68 cc 11 14 00       	push   $0x1411cc
  1019d4:	68 bf a1 10 00       	push   $0x10a1bf
  1019d9:	e8 d4 70 00 00       	call   108ab2 <printf>
  1019de:	83 c4 10             	add    $0x10,%esp
  1019e1:	83 ec 0c             	sub    $0xc,%esp
  1019e4:	6a 00                	push   $0x0
  1019e6:	e8 df 67 00 00       	call   1081ca <__redirect_printf__>
  1019eb:	83 c4 10             	add    $0x10,%esp
  1019ee:	83 ec 08             	sub    $0x8,%esp
  1019f1:	68 e0 09 14 00       	push   $0x1409e0
  1019f6:	68 f8 03 00 00       	push   $0x3f8
  1019fb:	e8 0a 08 00 00       	call   10220a <com_write>
  101a00:	83 c4 10             	add    $0x10,%esp
  101a03:	83 ec 04             	sub    $0x4,%esp
  101a06:	68 00 04 00 00       	push   $0x400
  101a0b:	6a 00                	push   $0x0
  101a0d:	68 e0 09 14 00       	push   $0x1409e0
  101a12:	e8 14 74 00 00       	call   108e2b <memset>
  101a17:	83 c4 10             	add    $0x10,%esp
  101a1a:	83 ec 04             	sub    $0x4,%esp
  101a1d:	68 ec 03 00 00       	push   $0x3ec
  101a22:	6a 00                	push   $0x0
  101a24:	68 e0 0d 14 00       	push   $0x140de0
  101a29:	e8 fd 73 00 00       	call   108e2b <memset>
  101a2e:	83 c4 10             	add    $0x10,%esp
  101a31:	83 ec 04             	sub    $0x4,%esp
  101a34:	6a 14                	push   $0x14
  101a36:	6a 00                	push   $0x0
  101a38:	68 cc 11 14 00       	push   $0x1411cc
  101a3d:	e8 e9 73 00 00       	call   108e2b <memset>
  101a42:	83 c4 10             	add    $0x10,%esp
  101a45:	0f b7 45 f6          	movzwl -0xa(%ebp),%eax
  101a49:	66 d1 e8             	shr    %ax
  101a4c:	0f b7 c0             	movzwl %ax,%eax
  101a4f:	83 e0 01             	and    $0x1,%eax
  101a52:	85 c0                	test   %eax,%eax
  101a54:	0f 84 d2 04 00 00    	je     101f2c <ps2_controller_init+0x5f5>
  101a5a:	83 ec 08             	sub    $0x8,%esp
  101a5d:	68 ad 00 00 00       	push   $0xad
  101a62:	6a 64                	push   $0x64
  101a64:	e8 57 ec ff ff       	call   1006c0 <outb>
  101a69:	83 c4 10             	add    $0x10,%esp
  101a6c:	83 ec 08             	sub    $0x8,%esp
  101a6f:	68 a7 00 00 00       	push   $0xa7
  101a74:	6a 64                	push   $0x64
  101a76:	e8 45 ec ff ff       	call   1006c0 <outb>
  101a7b:	83 c4 10             	add    $0x10,%esp
  101a7e:	83 ec 0c             	sub    $0xc,%esp
  101a81:	6a 60                	push   $0x60
  101a83:	e8 1f ec ff ff       	call   1006a7 <inb>
  101a88:	83 c4 10             	add    $0x10,%esp
  101a8b:	83 ec 08             	sub    $0x8,%esp
  101a8e:	6a 20                	push   $0x20
  101a90:	6a 64                	push   $0x64
  101a92:	e8 29 ec ff ff       	call   1006c0 <outb>
  101a97:	83 c4 10             	add    $0x10,%esp
  101a9a:	83 ec 08             	sub    $0x8,%esp
  101a9d:	6a 60                	push   $0x60
  101a9f:	6a 64                	push   $0x64
  101aa1:	e8 1a ec ff ff       	call   1006c0 <outb>
  101aa6:	83 c4 10             	add    $0x10,%esp
  101aa9:	83 ec 0c             	sub    $0xc,%esp
  101aac:	6a 60                	push   $0x60
  101aae:	e8 f4 eb ff ff       	call   1006a7 <inb>
  101ab3:	83 c4 10             	add    $0x10,%esp
  101ab6:	88 45 f5             	mov    %al,-0xb(%ebp)
  101ab9:	0f b6 45 f5          	movzbl -0xb(%ebp),%eax
  101abd:	c0 e8 02             	shr    $0x2,%al
  101ac0:	83 e0 01             	and    $0x1,%eax
  101ac3:	a2 90 08 11 00       	mov    %al,0x110890
  101ac8:	83 ec 0c             	sub    $0xc,%esp
  101acb:	68 e0 0d 14 00       	push   $0x140de0
  101ad0:	e8 f5 66 00 00       	call   1081ca <__redirect_printf__>
  101ad5:	83 c4 10             	add    $0x10,%esp
  101ad8:	0f b6 05 90 08 11 00 	movzbl 0x110890,%eax
  101adf:	0f b6 c0             	movzbl %al,%eax
  101ae2:	83 ec 08             	sub    $0x8,%esp
  101ae5:	50                   	push   %eax
  101ae6:	68 c8 a1 10 00       	push   $0x10a1c8
  101aeb:	e8 c2 6f 00 00       	call   108ab2 <printf>
  101af0:	83 c4 10             	add    $0x10,%esp
  101af3:	83 ec 0c             	sub    $0xc,%esp
  101af6:	6a 00                	push   $0x0
  101af8:	e8 cd 66 00 00       	call   1081ca <__redirect_printf__>
  101afd:	83 c4 10             	add    $0x10,%esp
  101b00:	83 ec 0c             	sub    $0xc,%esp
  101b03:	8d 45 e5             	lea    -0x1b(%ebp),%eax
  101b06:	50                   	push   %eax
  101b07:	e8 a1 0b 00 00       	call   1026ad <cmos_read_rtc>
  101b0c:	83 c4 10             	add    $0x10,%esp
  101b0f:	83 ec 04             	sub    $0x4,%esp
  101b12:	68 cc 11 14 00       	push   $0x1411cc
  101b17:	83 ec 08             	sub    $0x8,%esp
  101b1a:	89 e0                	mov    %esp,%eax
  101b1c:	8b 55 e5             	mov    -0x1b(%ebp),%edx
  101b1f:	89 10                	mov    %edx,(%eax)
  101b21:	0f b7 55 e9          	movzwl -0x17(%ebp),%edx
  101b25:	66 89 50 04          	mov    %dx,0x4(%eax)
  101b29:	e8 e4 2f 00 00       	call   104b12 <cmos_datetime_to_str>
  101b2e:	83 c4 10             	add    $0x10,%esp
  101b31:	83 ec 0c             	sub    $0xc,%esp
  101b34:	68 e0 09 14 00       	push   $0x1409e0
  101b39:	e8 8c 66 00 00       	call   1081ca <__redirect_printf__>
  101b3e:	83 c4 10             	add    $0x10,%esp
  101b41:	83 ec 04             	sub    $0x4,%esp
  101b44:	68 e0 0d 14 00       	push   $0x140de0
  101b49:	68 cc 11 14 00       	push   $0x1411cc
  101b4e:	68 bf a1 10 00       	push   $0x10a1bf
  101b53:	e8 5a 6f 00 00       	call   108ab2 <printf>
  101b58:	83 c4 10             	add    $0x10,%esp
  101b5b:	83 ec 0c             	sub    $0xc,%esp
  101b5e:	6a 00                	push   $0x0
  101b60:	e8 65 66 00 00       	call   1081ca <__redirect_printf__>
  101b65:	83 c4 10             	add    $0x10,%esp
  101b68:	83 ec 08             	sub    $0x8,%esp
  101b6b:	68 e0 09 14 00       	push   $0x1409e0
  101b70:	68 f8 03 00 00       	push   $0x3f8
  101b75:	e8 90 06 00 00       	call   10220a <com_write>
  101b7a:	83 c4 10             	add    $0x10,%esp
  101b7d:	83 ec 04             	sub    $0x4,%esp
  101b80:	68 00 04 00 00       	push   $0x400
  101b85:	6a 00                	push   $0x0
  101b87:	68 e0 09 14 00       	push   $0x1409e0
  101b8c:	e8 9a 72 00 00       	call   108e2b <memset>
  101b91:	83 c4 10             	add    $0x10,%esp
  101b94:	83 ec 04             	sub    $0x4,%esp
  101b97:	68 ec 03 00 00       	push   $0x3ec
  101b9c:	6a 00                	push   $0x0
  101b9e:	68 e0 0d 14 00       	push   $0x140de0
  101ba3:	e8 83 72 00 00       	call   108e2b <memset>
  101ba8:	83 c4 10             	add    $0x10,%esp
  101bab:	83 ec 04             	sub    $0x4,%esp
  101bae:	6a 14                	push   $0x14
  101bb0:	6a 00                	push   $0x0
  101bb2:	68 cc 11 14 00       	push   $0x1411cc
  101bb7:	e8 6f 72 00 00       	call   108e2b <memset>
  101bbc:	83 c4 10             	add    $0x10,%esp
  101bbf:	83 ec 08             	sub    $0x8,%esp
  101bc2:	68 aa 00 00 00       	push   $0xaa
  101bc7:	6a 64                	push   $0x64
  101bc9:	e8 f2 ea ff ff       	call   1006c0 <outb>
  101bce:	83 c4 10             	add    $0x10,%esp
  101bd1:	83 ec 0c             	sub    $0xc,%esp
  101bd4:	6a 60                	push   $0x60
  101bd6:	e8 cc ea ff ff       	call   1006a7 <inb>
  101bdb:	83 c4 10             	add    $0x10,%esp
  101bde:	88 45 f4             	mov    %al,-0xc(%ebp)
  101be1:	80 7d f4 55          	cmpb   $0x55,-0xc(%ebp)
  101be5:	0f 85 45 02 00 00    	jne    101e30 <ps2_controller_init+0x4f9>
  101beb:	83 ec 0c             	sub    $0xc,%esp
  101bee:	68 e0 0d 14 00       	push   $0x140de0
  101bf3:	e8 d2 65 00 00       	call   1081ca <__redirect_printf__>
  101bf8:	83 c4 10             	add    $0x10,%esp
  101bfb:	83 ec 0c             	sub    $0xc,%esp
  101bfe:	68 f4 a1 10 00       	push   $0x10a1f4
  101c03:	e8 aa 6e 00 00       	call   108ab2 <printf>
  101c08:	83 c4 10             	add    $0x10,%esp
  101c0b:	83 ec 0c             	sub    $0xc,%esp
  101c0e:	6a 00                	push   $0x0
  101c10:	e8 b5 65 00 00       	call   1081ca <__redirect_printf__>
  101c15:	83 c4 10             	add    $0x10,%esp
  101c18:	83 ec 0c             	sub    $0xc,%esp
  101c1b:	8d 45 df             	lea    -0x21(%ebp),%eax
  101c1e:	50                   	push   %eax
  101c1f:	e8 89 0a 00 00       	call   1026ad <cmos_read_rtc>
  101c24:	83 c4 10             	add    $0x10,%esp
  101c27:	83 ec 04             	sub    $0x4,%esp
  101c2a:	68 cc 11 14 00       	push   $0x1411cc
  101c2f:	83 ec 08             	sub    $0x8,%esp
  101c32:	89 e0                	mov    %esp,%eax
  101c34:	8b 55 df             	mov    -0x21(%ebp),%edx
  101c37:	89 10                	mov    %edx,(%eax)
  101c39:	0f b7 55 e3          	movzwl -0x1d(%ebp),%edx
  101c3d:	66 89 50 04          	mov    %dx,0x4(%eax)
  101c41:	e8 cc 2e 00 00       	call   104b12 <cmos_datetime_to_str>
  101c46:	83 c4 10             	add    $0x10,%esp
  101c49:	83 ec 0c             	sub    $0xc,%esp
  101c4c:	68 e0 09 14 00       	push   $0x1409e0
  101c51:	e8 74 65 00 00       	call   1081ca <__redirect_printf__>
  101c56:	83 c4 10             	add    $0x10,%esp
  101c59:	83 ec 04             	sub    $0x4,%esp
  101c5c:	68 e0 0d 14 00       	push   $0x140de0
  101c61:	68 cc 11 14 00       	push   $0x1411cc
  101c66:	68 bf a1 10 00       	push   $0x10a1bf
  101c6b:	e8 42 6e 00 00       	call   108ab2 <printf>
  101c70:	83 c4 10             	add    $0x10,%esp
  101c73:	83 ec 0c             	sub    $0xc,%esp
  101c76:	6a 00                	push   $0x0
  101c78:	e8 4d 65 00 00       	call   1081ca <__redirect_printf__>
  101c7d:	83 c4 10             	add    $0x10,%esp
  101c80:	83 ec 08             	sub    $0x8,%esp
  101c83:	68 e0 09 14 00       	push   $0x1409e0
  101c88:	68 f8 03 00 00       	push   $0x3f8
  101c8d:	e8 78 05 00 00       	call   10220a <com_write>
  101c92:	83 c4 10             	add    $0x10,%esp
  101c95:	83 ec 04             	sub    $0x4,%esp
  101c98:	68 00 04 00 00       	push   $0x400
  101c9d:	6a 00                	push   $0x0
  101c9f:	68 e0 09 14 00       	push   $0x1409e0
  101ca4:	e8 82 71 00 00       	call   108e2b <memset>
  101ca9:	83 c4 10             	add    $0x10,%esp
  101cac:	83 ec 04             	sub    $0x4,%esp
  101caf:	68 ec 03 00 00       	push   $0x3ec
  101cb4:	6a 00                	push   $0x0
  101cb6:	68 e0 0d 14 00       	push   $0x140de0
  101cbb:	e8 6b 71 00 00       	call   108e2b <memset>
  101cc0:	83 c4 10             	add    $0x10,%esp
  101cc3:	83 ec 04             	sub    $0x4,%esp
  101cc6:	6a 14                	push   $0x14
  101cc8:	6a 00                	push   $0x0
  101cca:	68 cc 11 14 00       	push   $0x1411cc
  101ccf:	e8 57 71 00 00       	call   108e2b <memset>
  101cd4:	83 c4 10             	add    $0x10,%esp
  101cd7:	0f b6 05 90 08 11 00 	movzbl 0x110890,%eax
  101cde:	84 c0                	test   %al,%al
  101ce0:	0f 84 ea 00 00 00    	je     101dd0 <ps2_controller_init+0x499>
  101ce6:	83 ec 08             	sub    $0x8,%esp
  101ce9:	68 ab 00 00 00       	push   $0xab
  101cee:	6a 64                	push   $0x64
  101cf0:	e8 cb e9 ff ff       	call   1006c0 <outb>
  101cf5:	83 c4 10             	add    $0x10,%esp
  101cf8:	83 ec 0c             	sub    $0xc,%esp
  101cfb:	6a 60                	push   $0x60
  101cfd:	e8 a5 e9 ff ff       	call   1006a7 <inb>
  101d02:	83 c4 10             	add    $0x10,%esp
  101d05:	88 45 f2             	mov    %al,-0xe(%ebp)
  101d08:	83 ec 08             	sub    $0x8,%esp
  101d0b:	68 a9 00 00 00       	push   $0xa9
  101d10:	6a 64                	push   $0x64
  101d12:	e8 a9 e9 ff ff       	call   1006c0 <outb>
  101d17:	83 c4 10             	add    $0x10,%esp
  101d1a:	83 ec 0c             	sub    $0xc,%esp
  101d1d:	6a 60                	push   $0x60
  101d1f:	e8 83 e9 ff ff       	call   1006a7 <inb>
  101d24:	83 c4 10             	add    $0x10,%esp
  101d27:	88 45 f1             	mov    %al,-0xf(%ebp)
  101d2a:	80 7d f2 00          	cmpb   $0x0,-0xe(%ebp)
  101d2e:	75 3d                	jne    101d6d <ps2_controller_init+0x436>
  101d30:	80 7d f1 00          	cmpb   $0x0,-0xf(%ebp)
  101d34:	75 37                	jne    101d6d <ps2_controller_init+0x436>
  101d36:	83 ec 08             	sub    $0x8,%esp
  101d39:	68 ae 00 00 00       	push   $0xae
  101d3e:	6a 64                	push   $0x64
  101d40:	e8 7b e9 ff ff       	call   1006c0 <outb>
  101d45:	83 c4 10             	add    $0x10,%esp
  101d48:	83 ec 08             	sub    $0x8,%esp
  101d4b:	68 a8 00 00 00       	push   $0xa8
  101d50:	6a 64                	push   $0x64
  101d52:	e8 69 e9 ff ff       	call   1006c0 <outb>
  101d57:	83 c4 10             	add    $0x10,%esp
  101d5a:	c6 05 90 08 11 00 01 	movb   $0x1,0x110890
  101d61:	c6 05 91 08 11 00 01 	movb   $0x1,0x110891
  101d68:	e9 bf 01 00 00       	jmp    101f2c <ps2_controller_init+0x5f5>
  101d6d:	80 7d f2 00          	cmpb   $0x0,-0xe(%ebp)
  101d71:	75 2b                	jne    101d9e <ps2_controller_init+0x467>
  101d73:	80 7d f1 00          	cmpb   $0x0,-0xf(%ebp)
  101d77:	74 25                	je     101d9e <ps2_controller_init+0x467>
  101d79:	83 ec 08             	sub    $0x8,%esp
  101d7c:	68 ae 00 00 00       	push   $0xae
  101d81:	6a 64                	push   $0x64
  101d83:	e8 38 e9 ff ff       	call   1006c0 <outb>
  101d88:	83 c4 10             	add    $0x10,%esp
  101d8b:	c6 05 90 08 11 00 00 	movb   $0x0,0x110890
  101d92:	c6 05 91 08 11 00 01 	movb   $0x1,0x110891
  101d99:	e9 8e 01 00 00       	jmp    101f2c <ps2_controller_init+0x5f5>
  101d9e:	80 7d f2 00          	cmpb   $0x0,-0xe(%ebp)
  101da2:	74 19                	je     101dbd <ps2_controller_init+0x486>
  101da4:	80 7d f1 00          	cmpb   $0x0,-0xf(%ebp)
  101da8:	75 13                	jne    101dbd <ps2_controller_init+0x486>
  101daa:	c6 05 90 08 11 00 00 	movb   $0x0,0x110890
  101db1:	c6 05 91 08 11 00 00 	movb   $0x0,0x110891
  101db8:	e9 6f 01 00 00       	jmp    101f2c <ps2_controller_init+0x5f5>
  101dbd:	c6 05 90 08 11 00 00 	movb   $0x0,0x110890
  101dc4:	c6 05 91 08 11 00 00 	movb   $0x0,0x110891
  101dcb:	e9 5c 01 00 00       	jmp    101f2c <ps2_controller_init+0x5f5>
  101dd0:	83 ec 08             	sub    $0x8,%esp
  101dd3:	68 ab 00 00 00       	push   $0xab
  101dd8:	6a 64                	push   $0x64
  101dda:	e8 e1 e8 ff ff       	call   1006c0 <outb>
  101ddf:	83 c4 10             	add    $0x10,%esp
  101de2:	83 ec 0c             	sub    $0xc,%esp
  101de5:	6a 60                	push   $0x60
  101de7:	e8 bb e8 ff ff       	call   1006a7 <inb>
  101dec:	83 c4 10             	add    $0x10,%esp
  101def:	88 45 f3             	mov    %al,-0xd(%ebp)
  101df2:	80 7d f3 00          	cmpb   $0x0,-0xd(%ebp)
  101df6:	74 13                	je     101e0b <ps2_controller_init+0x4d4>
  101df8:	c6 05 90 08 11 00 00 	movb   $0x0,0x110890
  101dff:	c6 05 91 08 11 00 00 	movb   $0x0,0x110891
  101e06:	e9 21 01 00 00       	jmp    101f2c <ps2_controller_init+0x5f5>
  101e0b:	c6 05 90 08 11 00 00 	movb   $0x0,0x110890
  101e12:	c6 05 91 08 11 00 01 	movb   $0x1,0x110891
  101e19:	83 ec 08             	sub    $0x8,%esp
  101e1c:	68 ae 00 00 00       	push   $0xae
  101e21:	6a 64                	push   $0x64
  101e23:	e8 98 e8 ff ff       	call   1006c0 <outb>
  101e28:	83 c4 10             	add    $0x10,%esp
  101e2b:	e9 fc 00 00 00       	jmp    101f2c <ps2_controller_init+0x5f5>
  101e30:	c6 05 90 08 11 00 00 	movb   $0x0,0x110890
  101e37:	c6 05 91 08 11 00 00 	movb   $0x0,0x110891
  101e3e:	83 ec 0c             	sub    $0xc,%esp
  101e41:	68 e0 0d 14 00       	push   $0x140de0
  101e46:	e8 7f 63 00 00       	call   1081ca <__redirect_printf__>
  101e4b:	83 c4 10             	add    $0x10,%esp
  101e4e:	83 ec 0c             	sub    $0xc,%esp
  101e51:	68 18 a2 10 00       	push   $0x10a218
  101e56:	e8 57 6c 00 00       	call   108ab2 <printf>
  101e5b:	83 c4 10             	add    $0x10,%esp
  101e5e:	83 ec 0c             	sub    $0xc,%esp
  101e61:	6a 00                	push   $0x0
  101e63:	e8 62 63 00 00       	call   1081ca <__redirect_printf__>
  101e68:	83 c4 10             	add    $0x10,%esp
  101e6b:	83 ec 0c             	sub    $0xc,%esp
  101e6e:	8d 45 d9             	lea    -0x27(%ebp),%eax
  101e71:	50                   	push   %eax
  101e72:	e8 36 08 00 00       	call   1026ad <cmos_read_rtc>
  101e77:	83 c4 10             	add    $0x10,%esp
  101e7a:	83 ec 04             	sub    $0x4,%esp
  101e7d:	68 cc 11 14 00       	push   $0x1411cc
  101e82:	83 ec 08             	sub    $0x8,%esp
  101e85:	89 e0                	mov    %esp,%eax
  101e87:	8b 55 d9             	mov    -0x27(%ebp),%edx
  101e8a:	89 10                	mov    %edx,(%eax)
  101e8c:	0f b7 55 dd          	movzwl -0x23(%ebp),%edx
  101e90:	66 89 50 04          	mov    %dx,0x4(%eax)
  101e94:	e8 79 2c 00 00       	call   104b12 <cmos_datetime_to_str>
  101e99:	83 c4 10             	add    $0x10,%esp
  101e9c:	83 ec 0c             	sub    $0xc,%esp
  101e9f:	68 e0 09 14 00       	push   $0x1409e0
  101ea4:	e8 21 63 00 00       	call   1081ca <__redirect_printf__>
  101ea9:	83 c4 10             	add    $0x10,%esp
  101eac:	83 ec 04             	sub    $0x4,%esp
  101eaf:	68 e0 0d 14 00       	push   $0x140de0
  101eb4:	68 cc 11 14 00       	push   $0x1411cc
  101eb9:	68 bf a1 10 00       	push   $0x10a1bf
  101ebe:	e8 ef 6b 00 00       	call   108ab2 <printf>
  101ec3:	83 c4 10             	add    $0x10,%esp
  101ec6:	83 ec 0c             	sub    $0xc,%esp
  101ec9:	6a 00                	push   $0x0
  101ecb:	e8 fa 62 00 00       	call   1081ca <__redirect_printf__>
  101ed0:	83 c4 10             	add    $0x10,%esp
  101ed3:	83 ec 08             	sub    $0x8,%esp
  101ed6:	68 e0 09 14 00       	push   $0x1409e0
  101edb:	68 f8 03 00 00       	push   $0x3f8
  101ee0:	e8 25 03 00 00       	call   10220a <com_write>
  101ee5:	83 c4 10             	add    $0x10,%esp
  101ee8:	83 ec 04             	sub    $0x4,%esp
  101eeb:	68 00 04 00 00       	push   $0x400
  101ef0:	6a 00                	push   $0x0
  101ef2:	68 e0 09 14 00       	push   $0x1409e0
  101ef7:	e8 2f 6f 00 00       	call   108e2b <memset>
  101efc:	83 c4 10             	add    $0x10,%esp
  101eff:	83 ec 04             	sub    $0x4,%esp
  101f02:	68 ec 03 00 00       	push   $0x3ec
  101f07:	6a 00                	push   $0x0
  101f09:	68 e0 0d 14 00       	push   $0x140de0
  101f0e:	e8 18 6f 00 00       	call   108e2b <memset>
  101f13:	83 c4 10             	add    $0x10,%esp
  101f16:	83 ec 04             	sub    $0x4,%esp
  101f19:	6a 14                	push   $0x14
  101f1b:	6a 00                	push   $0x0
  101f1d:	68 cc 11 14 00       	push   $0x1411cc
  101f22:	e8 04 6f 00 00       	call   108e2b <memset>
  101f27:	83 c4 10             	add    $0x10,%esp
  101f2a:	eb 00                	jmp    101f2c <ps2_controller_init+0x5f5>
  101f2c:	90                   	nop
  101f2d:	c9                   	leave  
  101f2e:	c3                   	ret    

00101f2f <ps2_is_dual_channel>:
  101f2f:	55                   	push   %ebp
  101f30:	89 e5                	mov    %esp,%ebp
  101f32:	0f b6 05 90 08 11 00 	movzbl 0x110890,%eax
  101f39:	5d                   	pop    %ebp
  101f3a:	c3                   	ret    

00101f3b <ps2_is_present>:
  101f3b:	55                   	push   %ebp
  101f3c:	89 e5                	mov    %esp,%ebp
  101f3e:	0f b6 05 91 08 11 00 	movzbl 0x110891,%eax
  101f45:	5d                   	pop    %ebp
  101f46:	c3                   	ret    

00101f47 <COM_SET_BAUD>:
  101f47:	55                   	push   %ebp
  101f48:	89 e5                	mov    %esp,%ebp
  101f4a:	83 ec 10             	sub    $0x10,%esp
  101f4d:	b8 00 c2 01 00       	mov    $0x1c200,%eax
  101f52:	99                   	cltd   
  101f53:	f7 7d 08             	idivl  0x8(%ebp)
  101f56:	88 45 ff             	mov    %al,-0x1(%ebp)
  101f59:	0f b6 45 ff          	movzbl -0x1(%ebp),%eax
  101f5d:	c9                   	leave  
  101f5e:	c3                   	ret    

00101f5f <COM_SET_BPS>:
  101f5f:	55                   	push   %ebp
  101f60:	89 e5                	mov    %esp,%ebp
  101f62:	83 ec 1c             	sub    $0x1c,%esp
  101f65:	8b 4d 08             	mov    0x8(%ebp),%ecx
  101f68:	8b 55 0c             	mov    0xc(%ebp),%edx
  101f6b:	8b 45 10             	mov    0x10(%ebp),%eax
  101f6e:	88 4d ec             	mov    %cl,-0x14(%ebp)
  101f71:	88 55 e8             	mov    %dl,-0x18(%ebp)
  101f74:	88 45 e4             	mov    %al,-0x1c(%ebp)
  101f77:	c6 45 ff 00          	movb   $0x0,-0x1(%ebp)
  101f7b:	0f b6 45 ec          	movzbl -0x14(%ebp),%eax
  101f7f:	83 e0 03             	and    $0x3,%eax
  101f82:	89 c2                	mov    %eax,%edx
  101f84:	0f b6 45 ff          	movzbl -0x1(%ebp),%eax
  101f88:	09 d0                	or     %edx,%eax
  101f8a:	88 45 ff             	mov    %al,-0x1(%ebp)
  101f8d:	0f b6 45 e4          	movzbl -0x1c(%ebp),%eax
  101f91:	c1 e0 02             	shl    $0x2,%eax
  101f94:	83 e0 04             	and    $0x4,%eax
  101f97:	89 c2                	mov    %eax,%edx
  101f99:	0f b6 45 ff          	movzbl -0x1(%ebp),%eax
  101f9d:	09 d0                	or     %edx,%eax
  101f9f:	88 45 ff             	mov    %al,-0x1(%ebp)
  101fa2:	0f b6 45 e8          	movzbl -0x18(%ebp),%eax
  101fa6:	c1 e0 03             	shl    $0x3,%eax
  101fa9:	83 e0 38             	and    $0x38,%eax
  101fac:	89 c2                	mov    %eax,%edx
  101fae:	0f b6 45 ff          	movzbl -0x1(%ebp),%eax
  101fb2:	09 d0                	or     %edx,%eax
  101fb4:	88 45 ff             	mov    %al,-0x1(%ebp)
  101fb7:	0f b6 45 ff          	movzbl -0x1(%ebp),%eax
  101fbb:	c9                   	leave  
  101fbc:	c3                   	ret    

00101fbd <com_init>:
  101fbd:	55                   	push   %ebp
  101fbe:	89 e5                	mov    %esp,%ebp
  101fc0:	83 ec 28             	sub    $0x28,%esp
  101fc3:	8b 4d 10             	mov    0x10(%ebp),%ecx
  101fc6:	8b 55 14             	mov    0x14(%ebp),%edx
  101fc9:	8b 45 18             	mov    0x18(%ebp),%eax
  101fcc:	88 4d e4             	mov    %cl,-0x1c(%ebp)
  101fcf:	88 55 e0             	mov    %dl,-0x20(%ebp)
  101fd2:	88 45 dc             	mov    %al,-0x24(%ebp)
  101fd5:	c6 05 d8 08 14 00 00 	movb   $0x0,0x1408d8
  101fdc:	81 7d 08 f8 03 00 00 	cmpl   $0x3f8,0x8(%ebp)
  101fe3:	75 09                	jne    101fee <com_init+0x31>
  101fe5:	c6 05 a0 08 11 00 00 	movb   $0x0,0x1108a0
  101fec:	eb 26                	jmp    102014 <com_init+0x57>
  101fee:	81 7d 08 f8 02 00 00 	cmpl   $0x2f8,0x8(%ebp)
  101ff5:	75 09                	jne    102000 <com_init+0x43>
  101ff7:	c6 05 a1 08 11 00 00 	movb   $0x0,0x1108a1
  101ffe:	eb 14                	jmp    102014 <com_init+0x57>
  102000:	81 7d 08 e8 03 00 00 	cmpl   $0x3e8,0x8(%ebp)
  102007:	0f 85 97 01 00 00    	jne    1021a4 <com_init+0x1e7>
  10200d:	c6 05 a2 08 11 00 00 	movb   $0x0,0x1108a2
  102014:	8b 45 08             	mov    0x8(%ebp),%eax
  102017:	83 c0 01             	add    $0x1,%eax
  10201a:	83 ec 08             	sub    $0x8,%esp
  10201d:	6a 00                	push   $0x0
  10201f:	50                   	push   %eax
  102020:	e8 9b e6 ff ff       	call   1006c0 <outb>
  102025:	83 c4 10             	add    $0x10,%esp
  102028:	8b 45 08             	mov    0x8(%ebp),%eax
  10202b:	83 c0 03             	add    $0x3,%eax
  10202e:	83 ec 08             	sub    $0x8,%esp
  102031:	68 80 00 00 00       	push   $0x80
  102036:	50                   	push   %eax
  102037:	e8 84 e6 ff ff       	call   1006c0 <outb>
  10203c:	83 c4 10             	add    $0x10,%esp
  10203f:	83 ec 0c             	sub    $0xc,%esp
  102042:	ff 75 0c             	push   0xc(%ebp)
  102045:	e8 fd fe ff ff       	call   101f47 <COM_SET_BAUD>
  10204a:	83 c4 10             	add    $0x10,%esp
  10204d:	0f b6 c0             	movzbl %al,%eax
  102050:	83 ec 08             	sub    $0x8,%esp
  102053:	50                   	push   %eax
  102054:	ff 75 08             	push   0x8(%ebp)
  102057:	e8 64 e6 ff ff       	call   1006c0 <outb>
  10205c:	83 c4 10             	add    $0x10,%esp
  10205f:	8b 45 08             	mov    0x8(%ebp),%eax
  102062:	83 c0 01             	add    $0x1,%eax
  102065:	83 ec 08             	sub    $0x8,%esp
  102068:	6a 00                	push   $0x0
  10206a:	50                   	push   %eax
  10206b:	e8 50 e6 ff ff       	call   1006c0 <outb>
  102070:	83 c4 10             	add    $0x10,%esp
  102073:	0f b6 4d dc          	movzbl -0x24(%ebp),%ecx
  102077:	0f b6 55 e0          	movzbl -0x20(%ebp),%edx
  10207b:	0f b6 45 e4          	movzbl -0x1c(%ebp),%eax
  10207f:	83 ec 04             	sub    $0x4,%esp
  102082:	51                   	push   %ecx
  102083:	52                   	push   %edx
  102084:	50                   	push   %eax
  102085:	e8 d5 fe ff ff       	call   101f5f <COM_SET_BPS>
  10208a:	83 c4 10             	add    $0x10,%esp
  10208d:	0f b6 c0             	movzbl %al,%eax
  102090:	8b 55 08             	mov    0x8(%ebp),%edx
  102093:	83 c2 03             	add    $0x3,%edx
  102096:	83 ec 08             	sub    $0x8,%esp
  102099:	50                   	push   %eax
  10209a:	52                   	push   %edx
  10209b:	e8 20 e6 ff ff       	call   1006c0 <outb>
  1020a0:	83 c4 10             	add    $0x10,%esp
  1020a3:	8b 45 08             	mov    0x8(%ebp),%eax
  1020a6:	83 c0 02             	add    $0x2,%eax
  1020a9:	83 ec 08             	sub    $0x8,%esp
  1020ac:	68 c7 00 00 00       	push   $0xc7
  1020b1:	50                   	push   %eax
  1020b2:	e8 09 e6 ff ff       	call   1006c0 <outb>
  1020b7:	83 c4 10             	add    $0x10,%esp
  1020ba:	8b 45 08             	mov    0x8(%ebp),%eax
  1020bd:	83 c0 04             	add    $0x4,%eax
  1020c0:	83 ec 08             	sub    $0x8,%esp
  1020c3:	6a 0b                	push   $0xb
  1020c5:	50                   	push   %eax
  1020c6:	e8 f5 e5 ff ff       	call   1006c0 <outb>
  1020cb:	83 c4 10             	add    $0x10,%esp
  1020ce:	8b 45 08             	mov    0x8(%ebp),%eax
  1020d1:	83 c0 01             	add    $0x1,%eax
  1020d4:	83 ec 08             	sub    $0x8,%esp
  1020d7:	6a 01                	push   $0x1
  1020d9:	50                   	push   %eax
  1020da:	e8 e1 e5 ff ff       	call   1006c0 <outb>
  1020df:	83 c4 10             	add    $0x10,%esp
  1020e2:	8b 45 08             	mov    0x8(%ebp),%eax
  1020e5:	83 c0 04             	add    $0x4,%eax
  1020e8:	83 ec 08             	sub    $0x8,%esp
  1020eb:	6a 1e                	push   $0x1e
  1020ed:	50                   	push   %eax
  1020ee:	e8 cd e5 ff ff       	call   1006c0 <outb>
  1020f3:	83 c4 10             	add    $0x10,%esp
  1020f6:	83 ec 08             	sub    $0x8,%esp
  1020f9:	68 ae 00 00 00       	push   $0xae
  1020fe:	ff 75 08             	push   0x8(%ebp)
  102101:	e8 ba e5 ff ff       	call   1006c0 <outb>
  102106:	83 c4 10             	add    $0x10,%esp
  102109:	83 ec 0c             	sub    $0xc,%esp
  10210c:	ff 75 08             	push   0x8(%ebp)
  10210f:	e8 93 e5 ff ff       	call   1006a7 <inb>
  102114:	83 c4 10             	add    $0x10,%esp
  102117:	88 45 f7             	mov    %al,-0x9(%ebp)
  10211a:	80 7d f7 ae          	cmpb   $0xae,-0x9(%ebp)
  10211e:	0f 85 81 00 00 00    	jne    1021a5 <com_init+0x1e8>
  102124:	8b 45 08             	mov    0x8(%ebp),%eax
  102127:	83 c0 04             	add    $0x4,%eax
  10212a:	83 ec 08             	sub    $0x8,%esp
  10212d:	6a 0f                	push   $0xf
  10212f:	50                   	push   %eax
  102130:	e8 8b e5 ff ff       	call   1006c0 <outb>
  102135:	83 c4 10             	add    $0x10,%esp
  102138:	81 7d 08 f8 03 00 00 	cmpl   $0x3f8,0x8(%ebp)
  10213f:	75 1b                	jne    10215c <com_init+0x19f>
  102141:	c6 05 a0 08 11 00 01 	movb   $0x1,0x1108a0
  102148:	83 ec 08             	sub    $0x8,%esp
  10214b:	68 ed 24 10 00       	push   $0x1024ed
  102150:	6a 24                	push   $0x24
  102152:	e8 f7 ef ff ff       	call   10114e <isr_register>
  102157:	83 c4 10             	add    $0x10,%esp
  10215a:	eb 49                	jmp    1021a5 <com_init+0x1e8>
  10215c:	81 7d 08 f8 02 00 00 	cmpl   $0x2f8,0x8(%ebp)
  102163:	75 1b                	jne    102180 <com_init+0x1c3>
  102165:	c6 05 a1 08 11 00 01 	movb   $0x1,0x1108a1
  10216c:	83 ec 08             	sub    $0x8,%esp
  10216f:	68 0f 25 10 00       	push   $0x10250f
  102174:	6a 23                	push   $0x23
  102176:	e8 d3 ef ff ff       	call   10114e <isr_register>
  10217b:	83 c4 10             	add    $0x10,%esp
  10217e:	eb 25                	jmp    1021a5 <com_init+0x1e8>
  102180:	81 7d 08 e8 03 00 00 	cmpl   $0x3e8,0x8(%ebp)
  102187:	75 1c                	jne    1021a5 <com_init+0x1e8>
  102189:	c6 05 a2 08 11 00 01 	movb   $0x1,0x1108a2
  102190:	83 ec 08             	sub    $0x8,%esp
  102193:	68 31 25 10 00       	push   $0x102531
  102198:	6a 24                	push   $0x24
  10219a:	e8 af ef ff ff       	call   10114e <isr_register>
  10219f:	83 c4 10             	add    $0x10,%esp
  1021a2:	eb 01                	jmp    1021a5 <com_init+0x1e8>
  1021a4:	90                   	nop
  1021a5:	c9                   	leave  
  1021a6:	c3                   	ret    

001021a7 <com_set_int_byte>:
  1021a7:	55                   	push   %ebp
  1021a8:	89 e5                	mov    %esp,%ebp
  1021aa:	83 ec 04             	sub    $0x4,%esp
  1021ad:	8b 45 08             	mov    0x8(%ebp),%eax
  1021b0:	88 45 fc             	mov    %al,-0x4(%ebp)
  1021b3:	0f b6 45 fc          	movzbl -0x4(%ebp),%eax
  1021b7:	a2 d8 08 14 00       	mov    %al,0x1408d8
  1021bc:	90                   	nop
  1021bd:	c9                   	leave  
  1021be:	c3                   	ret    

001021bf <com_is_initialized>:
  1021bf:	55                   	push   %ebp
  1021c0:	89 e5                	mov    %esp,%ebp
  1021c2:	81 7d 08 f8 03 00 00 	cmpl   $0x3f8,0x8(%ebp)
  1021c9:	74 1d                	je     1021e8 <com_is_initialized+0x29>
  1021cb:	81 7d 08 f8 03 00 00 	cmpl   $0x3f8,0x8(%ebp)
  1021d2:	7f 2f                	jg     102203 <com_is_initialized+0x44>
  1021d4:	81 7d 08 f8 02 00 00 	cmpl   $0x2f8,0x8(%ebp)
  1021db:	74 14                	je     1021f1 <com_is_initialized+0x32>
  1021dd:	81 7d 08 e8 03 00 00 	cmpl   $0x3e8,0x8(%ebp)
  1021e4:	74 14                	je     1021fa <com_is_initialized+0x3b>
  1021e6:	eb 1b                	jmp    102203 <com_is_initialized+0x44>
  1021e8:	0f b6 05 a0 08 11 00 	movzbl 0x1108a0,%eax
  1021ef:	eb 17                	jmp    102208 <com_is_initialized+0x49>
  1021f1:	0f b6 05 a1 08 11 00 	movzbl 0x1108a1,%eax
  1021f8:	eb 0e                	jmp    102208 <com_is_initialized+0x49>
  1021fa:	0f b6 05 a2 08 11 00 	movzbl 0x1108a2,%eax
  102201:	eb 05                	jmp    102208 <com_is_initialized+0x49>
  102203:	b8 00 00 00 00       	mov    $0x0,%eax
  102208:	5d                   	pop    %ebp
  102209:	c3                   	ret    

0010220a <com_write>:
  10220a:	55                   	push   %ebp
  10220b:	89 e5                	mov    %esp,%ebp
  10220d:	83 ec 28             	sub    $0x28,%esp
  102210:	83 ec 0c             	sub    $0xc,%esp
  102213:	ff 75 0c             	push   0xc(%ebp)
  102216:	e8 43 6c 00 00       	call   108e5e <strlen>
  10221b:	83 c4 10             	add    $0x10,%esp
  10221e:	89 45 f0             	mov    %eax,-0x10(%ebp)
  102221:	81 7d 08 f8 03 00 00 	cmpl   $0x3f8,0x8(%ebp)
  102228:	74 27                	je     102251 <com_write+0x47>
  10222a:	81 7d 08 f8 02 00 00 	cmpl   $0x2f8,0x8(%ebp)
  102231:	74 17                	je     10224a <com_write+0x40>
  102233:	81 7d 08 e8 03 00 00 	cmpl   $0x3e8,0x8(%ebp)
  10223a:	75 07                	jne    102243 <com_write+0x39>
  10223c:	b8 c0 08 12 00       	mov    $0x1208c0,%eax
  102241:	eb 13                	jmp    102256 <com_write+0x4c>
  102243:	b8 00 00 00 00       	mov    $0x0,%eax
  102248:	eb 0c                	jmp    102256 <com_write+0x4c>
  10224a:	b8 c0 88 11 00       	mov    $0x1188c0,%eax
  10224f:	eb 05                	jmp    102256 <com_write+0x4c>
  102251:	b8 c0 08 11 00       	mov    $0x1108c0,%eax
  102256:	89 45 ec             	mov    %eax,-0x14(%ebp)
  102259:	81 7d 08 f8 03 00 00 	cmpl   $0x3f8,0x8(%ebp)
  102260:	74 27                	je     102289 <com_write+0x7f>
  102262:	81 7d 08 f8 02 00 00 	cmpl   $0x2f8,0x8(%ebp)
  102269:	74 17                	je     102282 <com_write+0x78>
  10226b:	81 7d 08 e8 03 00 00 	cmpl   $0x3e8,0x8(%ebp)
  102272:	75 07                	jne    10227b <com_write+0x71>
  102274:	b8 c8 08 14 00       	mov    $0x1408c8,%eax
  102279:	eb 13                	jmp    10228e <com_write+0x84>
  10227b:	b8 00 00 00 00       	mov    $0x0,%eax
  102280:	eb 0c                	jmp    10228e <com_write+0x84>
  102282:	b8 c4 08 14 00       	mov    $0x1408c4,%eax
  102287:	eb 05                	jmp    10228e <com_write+0x84>
  102289:	b8 c0 08 14 00       	mov    $0x1408c0,%eax
  10228e:	89 45 e8             	mov    %eax,-0x18(%ebp)
  102291:	83 7d ec 00          	cmpl   $0x0,-0x14(%ebp)
  102295:	74 06                	je     10229d <com_write+0x93>
  102297:	83 7d e8 00          	cmpl   $0x0,-0x18(%ebp)
  10229b:	75 07                	jne    1022a4 <com_write+0x9a>
  10229d:	b8 ff ff ff ff       	mov    $0xffffffff,%eax
  1022a2:	eb 5c                	jmp    102300 <com_write+0xf6>
  1022a4:	c7 45 f4 00 00 00 00 	movl   $0x0,-0xc(%ebp)
  1022ab:	eb 48                	jmp    1022f5 <com_write+0xeb>
  1022ad:	8b 45 e8             	mov    -0x18(%ebp),%eax
  1022b0:	8b 00                	mov    (%eax),%eax
  1022b2:	89 45 e4             	mov    %eax,-0x1c(%ebp)
  1022b5:	81 7d e4 00 80 00 00 	cmpl   $0x8000,-0x1c(%ebp)
  1022bc:	75 0e                	jne    1022cc <com_write+0xc2>
  1022be:	c6 05 24 12 14 00 4b 	movb   $0x4b,0x141224
  1022c5:	b8 ff ff ff ff       	mov    $0xffffffff,%eax
  1022ca:	eb 34                	jmp    102300 <com_write+0xf6>
  1022cc:	8b 55 f4             	mov    -0xc(%ebp),%edx
  1022cf:	8b 45 0c             	mov    0xc(%ebp),%eax
  1022d2:	8d 0c 02             	lea    (%edx,%eax,1),%ecx
  1022d5:	8b 45 e8             	mov    -0x18(%ebp),%eax
  1022d8:	8b 10                	mov    (%eax),%edx
  1022da:	8b 45 ec             	mov    -0x14(%ebp),%eax
  1022dd:	01 c2                	add    %eax,%edx
  1022df:	0f b6 01             	movzbl (%ecx),%eax
  1022e2:	88 02                	mov    %al,(%edx)
  1022e4:	8b 45 e4             	mov    -0x1c(%ebp),%eax
  1022e7:	83 c0 01             	add    $0x1,%eax
  1022ea:	89 c2                	mov    %eax,%edx
  1022ec:	8b 45 e8             	mov    -0x18(%ebp),%eax
  1022ef:	89 10                	mov    %edx,(%eax)
  1022f1:	83 45 f4 01          	addl   $0x1,-0xc(%ebp)
  1022f5:	8b 45 f4             	mov    -0xc(%ebp),%eax
  1022f8:	3b 45 f0             	cmp    -0x10(%ebp),%eax
  1022fb:	7c b0                	jl     1022ad <com_write+0xa3>
  1022fd:	8b 45 f0             	mov    -0x10(%ebp),%eax
  102300:	c9                   	leave  
  102301:	c3                   	ret    

00102302 <com_read>:
  102302:	55                   	push   %ebp
  102303:	89 e5                	mov    %esp,%ebp
  102305:	53                   	push   %ebx
  102306:	83 ec 14             	sub    $0x14,%esp
  102309:	81 7d 08 f8 03 00 00 	cmpl   $0x3f8,0x8(%ebp)
  102310:	74 27                	je     102339 <com_read+0x37>
  102312:	81 7d 08 f8 02 00 00 	cmpl   $0x2f8,0x8(%ebp)
  102319:	74 17                	je     102332 <com_read+0x30>
  10231b:	81 7d 08 e8 03 00 00 	cmpl   $0x3e8,0x8(%ebp)
  102322:	75 07                	jne    10232b <com_read+0x29>
  102324:	b8 c0 88 13 00       	mov    $0x1388c0,%eax
  102329:	eb 13                	jmp    10233e <com_read+0x3c>
  10232b:	b8 00 00 00 00       	mov    $0x0,%eax
  102330:	eb 0c                	jmp    10233e <com_read+0x3c>
  102332:	b8 c0 08 13 00       	mov    $0x1308c0,%eax
  102337:	eb 05                	jmp    10233e <com_read+0x3c>
  102339:	b8 c0 88 12 00       	mov    $0x1288c0,%eax
  10233e:	89 45 f0             	mov    %eax,-0x10(%ebp)
  102341:	81 7d 08 f8 03 00 00 	cmpl   $0x3f8,0x8(%ebp)
  102348:	74 27                	je     102371 <com_read+0x6f>
  10234a:	81 7d 08 f8 02 00 00 	cmpl   $0x2f8,0x8(%ebp)
  102351:	74 17                	je     10236a <com_read+0x68>
  102353:	81 7d 08 e8 03 00 00 	cmpl   $0x3e8,0x8(%ebp)
  10235a:	75 07                	jne    102363 <com_read+0x61>
  10235c:	b8 d4 08 14 00       	mov    $0x1408d4,%eax
  102361:	eb 13                	jmp    102376 <com_read+0x74>
  102363:	b8 00 00 00 00       	mov    $0x0,%eax
  102368:	eb 0c                	jmp    102376 <com_read+0x74>
  10236a:	b8 d0 08 14 00       	mov    $0x1408d0,%eax
  10236f:	eb 05                	jmp    102376 <com_read+0x74>
  102371:	b8 cc 08 14 00       	mov    $0x1408cc,%eax
  102376:	89 45 ec             	mov    %eax,-0x14(%ebp)
  102379:	83 7d f0 00          	cmpl   $0x0,-0x10(%ebp)
  10237d:	74 06                	je     102385 <com_read+0x83>
  10237f:	83 7d ec 00          	cmpl   $0x0,-0x14(%ebp)
  102383:	75 0a                	jne    10238f <com_read+0x8d>
  102385:	b8 ff ff ff ff       	mov    $0xffffffff,%eax
  10238a:	e9 89 00 00 00       	jmp    102418 <com_read+0x116>
  10238f:	8b 45 ec             	mov    -0x14(%ebp),%eax
  102392:	8b 10                	mov    (%eax),%edx
  102394:	8b 45 10             	mov    0x10(%ebp),%eax
  102397:	39 c2                	cmp    %eax,%edx
  102399:	0f 46 c2             	cmovbe %edx,%eax
  10239c:	89 45 e8             	mov    %eax,-0x18(%ebp)
  10239f:	8b 45 e8             	mov    -0x18(%ebp),%eax
  1023a2:	83 ec 04             	sub    $0x4,%esp
  1023a5:	50                   	push   %eax
  1023a6:	ff 75 f0             	push   -0x10(%ebp)
  1023a9:	ff 75 0c             	push   0xc(%ebp)
  1023ac:	e8 39 6a 00 00       	call   108dea <memcpy>
  1023b1:	83 c4 10             	add    $0x10,%esp
  1023b4:	8b 45 e8             	mov    -0x18(%ebp),%eax
  1023b7:	89 45 f4             	mov    %eax,-0xc(%ebp)
  1023ba:	eb 20                	jmp    1023dc <com_read+0xda>
  1023bc:	8b 55 f0             	mov    -0x10(%ebp),%edx
  1023bf:	8b 45 f4             	mov    -0xc(%ebp),%eax
  1023c2:	01 d0                	add    %edx,%eax
  1023c4:	8b 4d e8             	mov    -0x18(%ebp),%ecx
  1023c7:	8b 55 f4             	mov    -0xc(%ebp),%edx
  1023ca:	89 d3                	mov    %edx,%ebx
  1023cc:	29 cb                	sub    %ecx,%ebx
  1023ce:	8b 55 f0             	mov    -0x10(%ebp),%edx
  1023d1:	01 da                	add    %ebx,%edx
  1023d3:	0f b6 00             	movzbl (%eax),%eax
  1023d6:	88 02                	mov    %al,(%edx)
  1023d8:	83 45 f4 01          	addl   $0x1,-0xc(%ebp)
  1023dc:	8b 45 ec             	mov    -0x14(%ebp),%eax
  1023df:	8b 00                	mov    (%eax),%eax
  1023e1:	39 45 f4             	cmp    %eax,-0xc(%ebp)
  1023e4:	72 d6                	jb     1023bc <com_read+0xba>
  1023e6:	8b 45 ec             	mov    -0x14(%ebp),%eax
  1023e9:	8b 00                	mov    (%eax),%eax
  1023eb:	8b 4d e8             	mov    -0x18(%ebp),%ecx
  1023ee:	29 c8                	sub    %ecx,%eax
  1023f0:	89 c2                	mov    %eax,%edx
  1023f2:	8b 45 ec             	mov    -0x14(%ebp),%eax
  1023f5:	89 10                	mov    %edx,(%eax)
  1023f7:	8b 45 ec             	mov    -0x14(%ebp),%eax
  1023fa:	8b 00                	mov    (%eax),%eax
  1023fc:	85 c0                	test   %eax,%eax
  1023fe:	75 15                	jne    102415 <com_read+0x113>
  102400:	83 ec 04             	sub    $0x4,%esp
  102403:	68 00 80 00 00       	push   $0x8000
  102408:	6a 00                	push   $0x0
  10240a:	ff 75 f0             	push   -0x10(%ebp)
  10240d:	e8 19 6a 00 00       	call   108e2b <memset>
  102412:	83 c4 10             	add    $0x10,%esp
  102415:	8b 45 e8             	mov    -0x18(%ebp),%eax
  102418:	8b 5d fc             	mov    -0x4(%ebp),%ebx
  10241b:	c9                   	leave  
  10241c:	c3                   	ret    

0010241d <com_irq_handler>:
  10241d:	55                   	push   %ebp
  10241e:	89 e5                	mov    %esp,%ebp
  102420:	83 ec 18             	sub    $0x18,%esp
  102423:	8b 45 10             	mov    0x10(%ebp),%eax
  102426:	8b 00                	mov    (%eax),%eax
  102428:	3d 00 80 00 00       	cmp    $0x8000,%eax
  10242d:	75 0c                	jne    10243b <com_irq_handler+0x1e>
  10242f:	c6 05 24 12 14 00 4b 	movb   $0x4b,0x141224
  102436:	e9 a0 00 00 00       	jmp    1024db <com_irq_handler+0xbe>
  10243b:	83 ec 0c             	sub    $0xc,%esp
  10243e:	ff 75 08             	push   0x8(%ebp)
  102441:	e8 61 e2 ff ff       	call   1006a7 <inb>
  102446:	83 c4 10             	add    $0x10,%esp
  102449:	88 45 f7             	mov    %al,-0x9(%ebp)
  10244c:	80 7d f7 00          	cmpb   $0x0,-0x9(%ebp)
  102450:	0f 84 85 00 00 00    	je     1024db <com_irq_handler+0xbe>
  102456:	0f b6 05 d8 08 14 00 	movzbl 0x1408d8,%eax
  10245d:	84 c0                	test   %al,%al
  10245f:	74 51                	je     1024b2 <com_irq_handler+0x95>
  102461:	0f b6 05 d8 08 14 00 	movzbl 0x1408d8,%eax
  102468:	38 45 f7             	cmp    %al,-0x9(%ebp)
  10246b:	75 45                	jne    1024b2 <com_irq_handler+0x95>
  10246d:	8b 45 10             	mov    0x10(%ebp),%eax
  102470:	8b 00                	mov    (%eax),%eax
  102472:	85 c0                	test   %eax,%eax
  102474:	74 3c                	je     1024b2 <com_irq_handler+0x95>
  102476:	8b 45 10             	mov    0x10(%ebp),%eax
  102479:	8b 00                	mov    (%eax),%eax
  10247b:	83 ec 0c             	sub    $0xc,%esp
  10247e:	50                   	push   %eax
  10247f:	e8 a4 36 00 00       	call   105b28 <kmalloc>
  102484:	83 c4 10             	add    $0x10,%esp
  102487:	89 45 f0             	mov    %eax,-0x10(%ebp)
  10248a:	8b 45 10             	mov    0x10(%ebp),%eax
  10248d:	8b 10                	mov    (%eax),%edx
  10248f:	8b 45 14             	mov    0x14(%ebp),%eax
  102492:	83 ec 04             	sub    $0x4,%esp
  102495:	52                   	push   %edx
  102496:	ff 75 f0             	push   -0x10(%ebp)
  102499:	50                   	push   %eax
  10249a:	e8 07 5d 00 00       	call   1081a6 <read>
  10249f:	83 c4 10             	add    $0x10,%esp
  1024a2:	83 ec 0c             	sub    $0xc,%esp
  1024a5:	ff 75 f0             	push   -0x10(%ebp)
  1024a8:	e8 1b 37 00 00       	call   105bc8 <kfree>
  1024ad:	83 c4 10             	add    $0x10,%esp
  1024b0:	eb 29                	jmp    1024db <com_irq_handler+0xbe>
  1024b2:	0f b6 05 d8 08 14 00 	movzbl 0x1408d8,%eax
  1024b9:	38 45 f7             	cmp    %al,-0x9(%ebp)
  1024bc:	74 1d                	je     1024db <com_irq_handler+0xbe>
  1024be:	8b 45 10             	mov    0x10(%ebp),%eax
  1024c1:	8b 10                	mov    (%eax),%edx
  1024c3:	8b 45 0c             	mov    0xc(%ebp),%eax
  1024c6:	01 c2                	add    %eax,%edx
  1024c8:	0f b6 45 f7          	movzbl -0x9(%ebp),%eax
  1024cc:	88 02                	mov    %al,(%edx)
  1024ce:	8b 45 10             	mov    0x10(%ebp),%eax
  1024d1:	8b 00                	mov    (%eax),%eax
  1024d3:	8d 50 01             	lea    0x1(%eax),%edx
  1024d6:	8b 45 10             	mov    0x10(%ebp),%eax
  1024d9:	89 10                	mov    %edx,(%eax)
  1024db:	83 ec 08             	sub    $0x8,%esp
  1024de:	6a 20                	push   $0x20
  1024e0:	6a 20                	push   $0x20
  1024e2:	e8 d9 e1 ff ff       	call   1006c0 <outb>
  1024e7:	83 c4 10             	add    $0x10,%esp
  1024ea:	90                   	nop
  1024eb:	c9                   	leave  
  1024ec:	c3                   	ret    

001024ed <com_1_irq_handler>:
  1024ed:	55                   	push   %ebp
  1024ee:	89 e5                	mov    %esp,%ebp
  1024f0:	83 ec 08             	sub    $0x8,%esp
  1024f3:	6a 04                	push   $0x4
  1024f5:	68 cc 08 14 00       	push   $0x1408cc
  1024fa:	68 c0 88 12 00       	push   $0x1288c0
  1024ff:	68 f8 03 00 00       	push   $0x3f8
  102504:	e8 14 ff ff ff       	call   10241d <com_irq_handler>
  102509:	83 c4 10             	add    $0x10,%esp
  10250c:	90                   	nop
  10250d:	c9                   	leave  
  10250e:	c3                   	ret    

0010250f <com_2_irq_handler>:
  10250f:	55                   	push   %ebp
  102510:	89 e5                	mov    %esp,%ebp
  102512:	83 ec 08             	sub    $0x8,%esp
  102515:	6a 05                	push   $0x5
  102517:	68 d0 08 14 00       	push   $0x1408d0
  10251c:	68 c0 08 13 00       	push   $0x1308c0
  102521:	68 f8 02 00 00       	push   $0x2f8
  102526:	e8 f2 fe ff ff       	call   10241d <com_irq_handler>
  10252b:	83 c4 10             	add    $0x10,%esp
  10252e:	90                   	nop
  10252f:	c9                   	leave  
  102530:	c3                   	ret    

00102531 <com_3_irq_handler>:
  102531:	55                   	push   %ebp
  102532:	89 e5                	mov    %esp,%ebp
  102534:	83 ec 08             	sub    $0x8,%esp
  102537:	6a 06                	push   $0x6
  102539:	68 d4 08 14 00       	push   $0x1408d4
  10253e:	68 c0 88 13 00       	push   $0x1388c0
  102543:	68 e8 03 00 00       	push   $0x3e8
  102548:	e8 d0 fe ff ff       	call   10241d <com_irq_handler>
  10254d:	83 c4 10             	add    $0x10,%esp
  102550:	90                   	nop
  102551:	c9                   	leave  
  102552:	c3                   	ret    

00102553 <com_flush>:
  102553:	55                   	push   %ebp
  102554:	89 e5                	mov    %esp,%ebp
  102556:	83 ec 28             	sub    $0x28,%esp
  102559:	81 7d 08 f8 03 00 00 	cmpl   $0x3f8,0x8(%ebp)
  102560:	74 27                	je     102589 <com_flush+0x36>
  102562:	81 7d 08 f8 02 00 00 	cmpl   $0x2f8,0x8(%ebp)
  102569:	74 17                	je     102582 <com_flush+0x2f>
  10256b:	81 7d 08 e8 03 00 00 	cmpl   $0x3e8,0x8(%ebp)
  102572:	75 07                	jne    10257b <com_flush+0x28>
  102574:	b8 c0 08 12 00       	mov    $0x1208c0,%eax
  102579:	eb 13                	jmp    10258e <com_flush+0x3b>
  10257b:	b8 00 00 00 00       	mov    $0x0,%eax
  102580:	eb 0c                	jmp    10258e <com_flush+0x3b>
  102582:	b8 c0 88 11 00       	mov    $0x1188c0,%eax
  102587:	eb 05                	jmp    10258e <com_flush+0x3b>
  102589:	b8 c0 08 11 00       	mov    $0x1108c0,%eax
  10258e:	89 45 ec             	mov    %eax,-0x14(%ebp)
  102591:	81 7d 08 f8 03 00 00 	cmpl   $0x3f8,0x8(%ebp)
  102598:	74 27                	je     1025c1 <com_flush+0x6e>
  10259a:	81 7d 08 f8 02 00 00 	cmpl   $0x2f8,0x8(%ebp)
  1025a1:	74 17                	je     1025ba <com_flush+0x67>
  1025a3:	81 7d 08 e8 03 00 00 	cmpl   $0x3e8,0x8(%ebp)
  1025aa:	75 07                	jne    1025b3 <com_flush+0x60>
  1025ac:	b8 c8 08 14 00       	mov    $0x1408c8,%eax
  1025b1:	eb 13                	jmp    1025c6 <com_flush+0x73>
  1025b3:	b8 00 00 00 00       	mov    $0x0,%eax
  1025b8:	eb 0c                	jmp    1025c6 <com_flush+0x73>
  1025ba:	b8 c4 08 14 00       	mov    $0x1408c4,%eax
  1025bf:	eb 05                	jmp    1025c6 <com_flush+0x73>
  1025c1:	b8 c0 08 14 00       	mov    $0x1408c0,%eax
  1025c6:	89 45 e8             	mov    %eax,-0x18(%ebp)
  1025c9:	83 7d ec 00          	cmpl   $0x0,-0x14(%ebp)
  1025cd:	74 06                	je     1025d5 <com_flush+0x82>
  1025cf:	83 7d e8 00          	cmpl   $0x0,-0x18(%ebp)
  1025d3:	75 0a                	jne    1025df <com_flush+0x8c>
  1025d5:	b8 ff ff ff ff       	mov    $0xffffffff,%eax
  1025da:	e9 a7 00 00 00       	jmp    102686 <com_flush+0x133>
  1025df:	8b 45 e8             	mov    -0x18(%ebp),%eax
  1025e2:	8b 00                	mov    (%eax),%eax
  1025e4:	ba 10 00 00 00       	mov    $0x10,%edx
  1025e9:	39 d0                	cmp    %edx,%eax
  1025eb:	0f 47 c2             	cmova  %edx,%eax
  1025ee:	89 45 e4             	mov    %eax,-0x1c(%ebp)
  1025f1:	c7 45 f4 00 00 00 00 	movl   $0x0,-0xc(%ebp)
  1025f8:	eb 21                	jmp    10261b <com_flush+0xc8>
  1025fa:	8b 55 ec             	mov    -0x14(%ebp),%edx
  1025fd:	8b 45 f4             	mov    -0xc(%ebp),%eax
  102600:	01 d0                	add    %edx,%eax
  102602:	0f b6 00             	movzbl (%eax),%eax
  102605:	0f b6 c0             	movzbl %al,%eax
  102608:	83 ec 08             	sub    $0x8,%esp
  10260b:	50                   	push   %eax
  10260c:	ff 75 08             	push   0x8(%ebp)
  10260f:	e8 ac e0 ff ff       	call   1006c0 <outb>
  102614:	83 c4 10             	add    $0x10,%esp
  102617:	83 45 f4 01          	addl   $0x1,-0xc(%ebp)
  10261b:	8b 45 f4             	mov    -0xc(%ebp),%eax
  10261e:	3b 45 e4             	cmp    -0x1c(%ebp),%eax
  102621:	72 d7                	jb     1025fa <com_flush+0xa7>
  102623:	8b 45 e4             	mov    -0x1c(%ebp),%eax
  102626:	89 45 f0             	mov    %eax,-0x10(%ebp)
  102629:	eb 1f                	jmp    10264a <com_flush+0xf7>
  10262b:	8b 55 ec             	mov    -0x14(%ebp),%edx
  10262e:	8b 45 f0             	mov    -0x10(%ebp),%eax
  102631:	8d 0c 02             	lea    (%edx,%eax,1),%ecx
  102634:	8b 45 f0             	mov    -0x10(%ebp),%eax
  102637:	2b 45 e4             	sub    -0x1c(%ebp),%eax
  10263a:	89 c2                	mov    %eax,%edx
  10263c:	8b 45 ec             	mov    -0x14(%ebp),%eax
  10263f:	01 c2                	add    %eax,%edx
  102641:	0f b6 01             	movzbl (%ecx),%eax
  102644:	88 02                	mov    %al,(%edx)
  102646:	83 45 f0 01          	addl   $0x1,-0x10(%ebp)
  10264a:	8b 45 e8             	mov    -0x18(%ebp),%eax
  10264d:	8b 00                	mov    (%eax),%eax
  10264f:	39 45 f0             	cmp    %eax,-0x10(%ebp)
  102652:	72 d7                	jb     10262b <com_flush+0xd8>
  102654:	8b 45 e8             	mov    -0x18(%ebp),%eax
  102657:	8b 00                	mov    (%eax),%eax
  102659:	2b 45 e4             	sub    -0x1c(%ebp),%eax
  10265c:	89 c2                	mov    %eax,%edx
  10265e:	8b 45 e8             	mov    -0x18(%ebp),%eax
  102661:	89 10                	mov    %edx,(%eax)
  102663:	8b 45 e8             	mov    -0x18(%ebp),%eax
  102666:	8b 00                	mov    (%eax),%eax
  102668:	85 c0                	test   %eax,%eax
  10266a:	75 15                	jne    102681 <com_flush+0x12e>
  10266c:	83 ec 04             	sub    $0x4,%esp
  10266f:	68 00 80 00 00       	push   $0x8000
  102674:	6a 00                	push   $0x0
  102676:	ff 75 ec             	push   -0x14(%ebp)
  102679:	e8 ad 67 00 00       	call   108e2b <memset>
  10267e:	83 c4 10             	add    $0x10,%esp
  102681:	b8 10 00 00 00       	mov    $0x10,%eax
  102686:	c9                   	leave  
  102687:	c3                   	ret    

00102688 <cmos_read_rtc_reg>:
  102688:	55                   	push   %ebp
  102689:	89 e5                	mov    %esp,%ebp
  10268b:	83 ec 08             	sub    $0x8,%esp
  10268e:	83 ec 08             	sub    $0x8,%esp
  102691:	ff 75 08             	push   0x8(%ebp)
  102694:	6a 70                	push   $0x70
  102696:	e8 25 e0 ff ff       	call   1006c0 <outb>
  10269b:	83 c4 10             	add    $0x10,%esp
  10269e:	83 ec 0c             	sub    $0xc,%esp
  1026a1:	6a 71                	push   $0x71
  1026a3:	e8 ff df ff ff       	call   1006a7 <inb>
  1026a8:	83 c4 10             	add    $0x10,%esp
  1026ab:	c9                   	leave  
  1026ac:	c3                   	ret    

001026ad <cmos_read_rtc>:
  1026ad:	55                   	push   %ebp
  1026ae:	89 e5                	mov    %esp,%ebp
  1026b0:	83 ec 18             	sub    $0x18,%esp
  1026b3:	c6 45 f7 01          	movb   $0x1,-0x9(%ebp)
  1026b7:	eb 22                	jmp    1026db <cmos_read_rtc+0x2e>
  1026b9:	83 ec 08             	sub    $0x8,%esp
  1026bc:	6a 0a                	push   $0xa
  1026be:	6a 70                	push   $0x70
  1026c0:	e8 fb df ff ff       	call   1006c0 <outb>
  1026c5:	83 c4 10             	add    $0x10,%esp
  1026c8:	83 ec 0c             	sub    $0xc,%esp
  1026cb:	6a 71                	push   $0x71
  1026cd:	e8 d5 df ff ff       	call   1006a7 <inb>
  1026d2:	83 c4 10             	add    $0x10,%esp
  1026d5:	83 e0 80             	and    $0xffffff80,%eax
  1026d8:	88 45 f7             	mov    %al,-0x9(%ebp)
  1026db:	80 7d f7 01          	cmpb   $0x1,-0x9(%ebp)
  1026df:	74 d8                	je     1026b9 <cmos_read_rtc+0xc>
  1026e1:	83 ec 0c             	sub    $0xc,%esp
  1026e4:	6a 00                	push   $0x0
  1026e6:	e8 9d ff ff ff       	call   102688 <cmos_read_rtc_reg>
  1026eb:	83 c4 10             	add    $0x10,%esp
  1026ee:	a2 dc 08 14 00       	mov    %al,0x1408dc
  1026f3:	83 ec 0c             	sub    $0xc,%esp
  1026f6:	6a 02                	push   $0x2
  1026f8:	e8 8b ff ff ff       	call   102688 <cmos_read_rtc_reg>
  1026fd:	83 c4 10             	add    $0x10,%esp
  102700:	a2 dd 08 14 00       	mov    %al,0x1408dd
  102705:	83 ec 0c             	sub    $0xc,%esp
  102708:	6a 04                	push   $0x4
  10270a:	e8 79 ff ff ff       	call   102688 <cmos_read_rtc_reg>
  10270f:	83 c4 10             	add    $0x10,%esp
  102712:	a2 de 08 14 00       	mov    %al,0x1408de
  102717:	83 ec 0c             	sub    $0xc,%esp
  10271a:	6a 07                	push   $0x7
  10271c:	e8 67 ff ff ff       	call   102688 <cmos_read_rtc_reg>
  102721:	83 c4 10             	add    $0x10,%esp
  102724:	a2 df 08 14 00       	mov    %al,0x1408df
  102729:	83 ec 0c             	sub    $0xc,%esp
  10272c:	6a 08                	push   $0x8
  10272e:	e8 55 ff ff ff       	call   102688 <cmos_read_rtc_reg>
  102733:	83 c4 10             	add    $0x10,%esp
  102736:	a2 e0 08 14 00       	mov    %al,0x1408e0
  10273b:	83 ec 0c             	sub    $0xc,%esp
  10273e:	6a 09                	push   $0x9
  102740:	e8 43 ff ff ff       	call   102688 <cmos_read_rtc_reg>
  102745:	83 c4 10             	add    $0x10,%esp
  102748:	0f b6 c0             	movzbl %al,%eax
  10274b:	a3 e4 08 14 00       	mov    %eax,0x1408e4
  102750:	0f b6 05 dc 08 14 00 	movzbl 0x1408dc,%eax
  102757:	88 45 f6             	mov    %al,-0xa(%ebp)
  10275a:	0f b6 05 dd 08 14 00 	movzbl 0x1408dd,%eax
  102761:	88 45 f5             	mov    %al,-0xb(%ebp)
  102764:	0f b6 05 de 08 14 00 	movzbl 0x1408de,%eax
  10276b:	88 45 f4             	mov    %al,-0xc(%ebp)
  10276e:	0f b6 05 df 08 14 00 	movzbl 0x1408df,%eax
  102775:	88 45 f3             	mov    %al,-0xd(%ebp)
  102778:	0f b6 05 e0 08 14 00 	movzbl 0x1408e0,%eax
  10277f:	88 45 f2             	mov    %al,-0xe(%ebp)
  102782:	a1 e4 08 14 00       	mov    0x1408e4,%eax
  102787:	88 45 f1             	mov    %al,-0xf(%ebp)
  10278a:	c6 45 f7 01          	movb   $0x1,-0x9(%ebp)
  10278e:	eb 22                	jmp    1027b2 <cmos_read_rtc+0x105>
  102790:	83 ec 08             	sub    $0x8,%esp
  102793:	6a 0a                	push   $0xa
  102795:	6a 70                	push   $0x70
  102797:	e8 24 df ff ff       	call   1006c0 <outb>
  10279c:	83 c4 10             	add    $0x10,%esp
  10279f:	83 ec 0c             	sub    $0xc,%esp
  1027a2:	6a 71                	push   $0x71
  1027a4:	e8 fe de ff ff       	call   1006a7 <inb>
  1027a9:	83 c4 10             	add    $0x10,%esp
  1027ac:	83 e0 80             	and    $0xffffff80,%eax
  1027af:	88 45 f7             	mov    %al,-0x9(%ebp)
  1027b2:	80 7d f7 01          	cmpb   $0x1,-0x9(%ebp)
  1027b6:	74 d8                	je     102790 <cmos_read_rtc+0xe3>
  1027b8:	83 ec 0c             	sub    $0xc,%esp
  1027bb:	6a 00                	push   $0x0
  1027bd:	e8 c6 fe ff ff       	call   102688 <cmos_read_rtc_reg>
  1027c2:	83 c4 10             	add    $0x10,%esp
  1027c5:	a2 dc 08 14 00       	mov    %al,0x1408dc
  1027ca:	83 ec 0c             	sub    $0xc,%esp
  1027cd:	6a 02                	push   $0x2
  1027cf:	e8 b4 fe ff ff       	call   102688 <cmos_read_rtc_reg>
  1027d4:	83 c4 10             	add    $0x10,%esp
  1027d7:	a2 dd 08 14 00       	mov    %al,0x1408dd
  1027dc:	83 ec 0c             	sub    $0xc,%esp
  1027df:	6a 04                	push   $0x4
  1027e1:	e8 a2 fe ff ff       	call   102688 <cmos_read_rtc_reg>
  1027e6:	83 c4 10             	add    $0x10,%esp
  1027e9:	a2 de 08 14 00       	mov    %al,0x1408de
  1027ee:	83 ec 0c             	sub    $0xc,%esp
  1027f1:	6a 07                	push   $0x7
  1027f3:	e8 90 fe ff ff       	call   102688 <cmos_read_rtc_reg>
  1027f8:	83 c4 10             	add    $0x10,%esp
  1027fb:	a2 df 08 14 00       	mov    %al,0x1408df
  102800:	83 ec 0c             	sub    $0xc,%esp
  102803:	6a 08                	push   $0x8
  102805:	e8 7e fe ff ff       	call   102688 <cmos_read_rtc_reg>
  10280a:	83 c4 10             	add    $0x10,%esp
  10280d:	a2 e0 08 14 00       	mov    %al,0x1408e0
  102812:	83 ec 0c             	sub    $0xc,%esp
  102815:	6a 09                	push   $0x9
  102817:	e8 6c fe ff ff       	call   102688 <cmos_read_rtc_reg>
  10281c:	83 c4 10             	add    $0x10,%esp
  10281f:	0f b6 c0             	movzbl %al,%eax
  102822:	a3 e4 08 14 00       	mov    %eax,0x1408e4
  102827:	0f b6 05 dc 08 14 00 	movzbl 0x1408dc,%eax
  10282e:	38 45 f6             	cmp    %al,-0xa(%ebp)
  102831:	0f 85 19 ff ff ff    	jne    102750 <cmos_read_rtc+0xa3>
  102837:	0f b6 05 dd 08 14 00 	movzbl 0x1408dd,%eax
  10283e:	38 45 f5             	cmp    %al,-0xb(%ebp)
  102841:	0f 85 09 ff ff ff    	jne    102750 <cmos_read_rtc+0xa3>
  102847:	0f b6 05 de 08 14 00 	movzbl 0x1408de,%eax
  10284e:	38 45 f4             	cmp    %al,-0xc(%ebp)
  102851:	0f 85 f9 fe ff ff    	jne    102750 <cmos_read_rtc+0xa3>
  102857:	0f b6 05 df 08 14 00 	movzbl 0x1408df,%eax
  10285e:	38 45 f3             	cmp    %al,-0xd(%ebp)
  102861:	0f 85 e9 fe ff ff    	jne    102750 <cmos_read_rtc+0xa3>
  102867:	0f b6 05 e0 08 14 00 	movzbl 0x1408e0,%eax
  10286e:	38 45 f2             	cmp    %al,-0xe(%ebp)
  102871:	0f 85 d9 fe ff ff    	jne    102750 <cmos_read_rtc+0xa3>
  102877:	0f b6 55 f1          	movzbl -0xf(%ebp),%edx
  10287b:	a1 e4 08 14 00       	mov    0x1408e4,%eax
  102880:	39 c2                	cmp    %eax,%edx
  102882:	0f 85 c8 fe ff ff    	jne    102750 <cmos_read_rtc+0xa3>
  102888:	83 ec 0c             	sub    $0xc,%esp
  10288b:	6a 0b                	push   $0xb
  10288d:	e8 f6 fd ff ff       	call   102688 <cmos_read_rtc_reg>
  102892:	83 c4 10             	add    $0x10,%esp
  102895:	88 45 f0             	mov    %al,-0x10(%ebp)
  102898:	0f b6 45 f0          	movzbl -0x10(%ebp),%eax
  10289c:	83 e0 04             	and    $0x4,%eax
  10289f:	85 c0                	test   %eax,%eax
  1028a1:	0f 85 08 01 00 00    	jne    1029af <cmos_read_rtc+0x302>
  1028a7:	0f b6 05 dc 08 14 00 	movzbl 0x1408dc,%eax
  1028ae:	83 e0 0f             	and    $0xf,%eax
  1028b1:	89 c1                	mov    %eax,%ecx
  1028b3:	0f b6 05 dc 08 14 00 	movzbl 0x1408dc,%eax
  1028ba:	c0 e8 04             	shr    $0x4,%al
  1028bd:	89 c2                	mov    %eax,%edx
  1028bf:	89 d0                	mov    %edx,%eax
  1028c1:	c1 e0 02             	shl    $0x2,%eax
  1028c4:	01 d0                	add    %edx,%eax
  1028c6:	01 c0                	add    %eax,%eax
  1028c8:	01 c8                	add    %ecx,%eax
  1028ca:	a2 dc 08 14 00       	mov    %al,0x1408dc
  1028cf:	0f b6 05 dd 08 14 00 	movzbl 0x1408dd,%eax
  1028d6:	83 e0 0f             	and    $0xf,%eax
  1028d9:	89 c1                	mov    %eax,%ecx
  1028db:	0f b6 05 dd 08 14 00 	movzbl 0x1408dd,%eax
  1028e2:	c0 e8 04             	shr    $0x4,%al
  1028e5:	89 c2                	mov    %eax,%edx
  1028e7:	89 d0                	mov    %edx,%eax
  1028e9:	c1 e0 02             	shl    $0x2,%eax
  1028ec:	01 d0                	add    %edx,%eax
  1028ee:	01 c0                	add    %eax,%eax
  1028f0:	01 c8                	add    %ecx,%eax
  1028f2:	a2 dd 08 14 00       	mov    %al,0x1408dd
  1028f7:	0f b6 05 de 08 14 00 	movzbl 0x1408de,%eax
  1028fe:	83 e0 0f             	and    $0xf,%eax
  102901:	89 c1                	mov    %eax,%ecx
  102903:	0f b6 05 de 08 14 00 	movzbl 0x1408de,%eax
  10290a:	0f b6 c0             	movzbl %al,%eax
  10290d:	83 e0 70             	and    $0x70,%eax
  102910:	8d 50 0f             	lea    0xf(%eax),%edx
  102913:	85 c0                	test   %eax,%eax
  102915:	0f 48 c2             	cmovs  %edx,%eax
  102918:	c1 f8 04             	sar    $0x4,%eax
  10291b:	89 c2                	mov    %eax,%edx
  10291d:	89 d0                	mov    %edx,%eax
  10291f:	c1 e0 02             	shl    $0x2,%eax
  102922:	01 d0                	add    %edx,%eax
  102924:	01 c0                	add    %eax,%eax
  102926:	01 c8                	add    %ecx,%eax
  102928:	89 c2                	mov    %eax,%edx
  10292a:	0f b6 05 de 08 14 00 	movzbl 0x1408de,%eax
  102931:	83 e0 80             	and    $0xffffff80,%eax
  102934:	09 d0                	or     %edx,%eax
  102936:	a2 de 08 14 00       	mov    %al,0x1408de
  10293b:	0f b6 05 df 08 14 00 	movzbl 0x1408df,%eax
  102942:	83 e0 0f             	and    $0xf,%eax
  102945:	89 c1                	mov    %eax,%ecx
  102947:	0f b6 05 df 08 14 00 	movzbl 0x1408df,%eax
  10294e:	c0 e8 04             	shr    $0x4,%al
  102951:	89 c2                	mov    %eax,%edx
  102953:	89 d0                	mov    %edx,%eax
  102955:	c1 e0 02             	shl    $0x2,%eax
  102958:	01 d0                	add    %edx,%eax
  10295a:	01 c0                	add    %eax,%eax
  10295c:	01 c8                	add    %ecx,%eax
  10295e:	a2 df 08 14 00       	mov    %al,0x1408df
  102963:	0f b6 05 e0 08 14 00 	movzbl 0x1408e0,%eax
  10296a:	83 e0 0f             	and    $0xf,%eax
  10296d:	89 c1                	mov    %eax,%ecx
  10296f:	0f b6 05 e0 08 14 00 	movzbl 0x1408e0,%eax
  102976:	c0 e8 04             	shr    $0x4,%al
  102979:	89 c2                	mov    %eax,%edx
  10297b:	89 d0                	mov    %edx,%eax
  10297d:	c1 e0 02             	shl    $0x2,%eax
  102980:	01 d0                	add    %edx,%eax
  102982:	01 c0                	add    %eax,%eax
  102984:	01 c8                	add    %ecx,%eax
  102986:	a2 e0 08 14 00       	mov    %al,0x1408e0
  10298b:	a1 e4 08 14 00       	mov    0x1408e4,%eax
  102990:	83 e0 0f             	and    $0xf,%eax
  102993:	89 c1                	mov    %eax,%ecx
  102995:	a1 e4 08 14 00       	mov    0x1408e4,%eax
  10299a:	c1 e8 04             	shr    $0x4,%eax
  10299d:	89 c2                	mov    %eax,%edx
  10299f:	89 d0                	mov    %edx,%eax
  1029a1:	c1 e0 02             	shl    $0x2,%eax
  1029a4:	01 d0                	add    %edx,%eax
  1029a6:	01 c0                	add    %eax,%eax
  1029a8:	01 c8                	add    %ecx,%eax
  1029aa:	a3 e4 08 14 00       	mov    %eax,0x1408e4
  1029af:	0f b6 15 dc 08 14 00 	movzbl 0x1408dc,%edx
  1029b6:	8b 45 08             	mov    0x8(%ebp),%eax
  1029b9:	88 10                	mov    %dl,(%eax)
  1029bb:	0f b6 15 dd 08 14 00 	movzbl 0x1408dd,%edx
  1029c2:	8b 45 08             	mov    0x8(%ebp),%eax
  1029c5:	88 50 01             	mov    %dl,0x1(%eax)
  1029c8:	0f b6 15 de 08 14 00 	movzbl 0x1408de,%edx
  1029cf:	8b 45 08             	mov    0x8(%ebp),%eax
  1029d2:	88 50 02             	mov    %dl,0x2(%eax)
  1029d5:	0f b6 15 df 08 14 00 	movzbl 0x1408df,%edx
  1029dc:	8b 45 08             	mov    0x8(%ebp),%eax
  1029df:	88 50 03             	mov    %dl,0x3(%eax)
  1029e2:	0f b6 15 e0 08 14 00 	movzbl 0x1408e0,%edx
  1029e9:	8b 45 08             	mov    0x8(%ebp),%eax
  1029ec:	88 50 04             	mov    %dl,0x4(%eax)
  1029ef:	a1 e4 08 14 00       	mov    0x1408e4,%eax
  1029f4:	89 c2                	mov    %eax,%edx
  1029f6:	8b 45 08             	mov    0x8(%ebp),%eax
  1029f9:	88 50 05             	mov    %dl,0x5(%eax)
  1029fc:	90                   	nop
  1029fd:	c9                   	leave  
  1029fe:	c3                   	ret    

001029ff <acpi_check_rsd_ptr>:
  1029ff:	55                   	push   %ebp
  102a00:	89 e5                	mov    %esp,%ebp
  102a02:	83 ec 28             	sub    $0x28,%esp
  102a05:	c7 45 e8 3c a2 10 00 	movl   $0x10a23c,-0x18(%ebp)
  102a0c:	8b 45 08             	mov    0x8(%ebp),%eax
  102a0f:	89 45 e4             	mov    %eax,-0x1c(%ebp)
  102a12:	c6 45 f3 00          	movb   $0x0,-0xd(%ebp)
  102a16:	83 ec 04             	sub    $0x4,%esp
  102a19:	6a 08                	push   $0x8
  102a1b:	ff 75 e4             	push   -0x1c(%ebp)
  102a1e:	ff 75 e8             	push   -0x18(%ebp)
  102a21:	e8 54 63 00 00       	call   108d7a <memcmp>
  102a26:	83 c4 10             	add    $0x10,%esp
  102a29:	85 c0                	test   %eax,%eax
  102a2b:	75 34                	jne    102a61 <acpi_check_rsd_ptr+0x62>
  102a2d:	8b 45 08             	mov    0x8(%ebp),%eax
  102a30:	89 45 f4             	mov    %eax,-0xc(%ebp)
  102a33:	c7 45 ec 00 00 00 00 	movl   $0x0,-0x14(%ebp)
  102a3a:	eb 11                	jmp    102a4d <acpi_check_rsd_ptr+0x4e>
  102a3c:	8b 45 f4             	mov    -0xc(%ebp),%eax
  102a3f:	0f b6 00             	movzbl (%eax),%eax
  102a42:	00 45 f3             	add    %al,-0xd(%ebp)
  102a45:	83 45 f4 01          	addl   $0x1,-0xc(%ebp)
  102a49:	83 45 ec 01          	addl   $0x1,-0x14(%ebp)
  102a4d:	83 7d ec 13          	cmpl   $0x13,-0x14(%ebp)
  102a51:	76 e9                	jbe    102a3c <acpi_check_rsd_ptr+0x3d>
  102a53:	80 7d f3 00          	cmpb   $0x0,-0xd(%ebp)
  102a57:	75 08                	jne    102a61 <acpi_check_rsd_ptr+0x62>
  102a59:	8b 45 e4             	mov    -0x1c(%ebp),%eax
  102a5c:	8b 40 10             	mov    0x10(%eax),%eax
  102a5f:	eb 05                	jmp    102a66 <acpi_check_rsd_ptr+0x67>
  102a61:	b8 00 00 00 00       	mov    $0x0,%eax
  102a66:	c9                   	leave  
  102a67:	c3                   	ret    

00102a68 <acpi_get_rsd_ptr>:
  102a68:	55                   	push   %ebp
  102a69:	89 e5                	mov    %esp,%ebp
  102a6b:	83 ec 18             	sub    $0x18,%esp
  102a6e:	c7 45 f4 00 00 0e 00 	movl   $0xe0000,-0xc(%ebp)
  102a75:	eb 20                	jmp    102a97 <acpi_get_rsd_ptr+0x2f>
  102a77:	83 ec 0c             	sub    $0xc,%esp
  102a7a:	ff 75 f4             	push   -0xc(%ebp)
  102a7d:	e8 7d ff ff ff       	call   1029ff <acpi_check_rsd_ptr>
  102a82:	83 c4 10             	add    $0x10,%esp
  102a85:	89 45 f0             	mov    %eax,-0x10(%ebp)
  102a88:	83 7d f0 00          	cmpl   $0x0,-0x10(%ebp)
  102a8c:	74 05                	je     102a93 <acpi_get_rsd_ptr+0x2b>
  102a8e:	8b 45 f0             	mov    -0x10(%ebp),%eax
  102a91:	eb 13                	jmp    102aa6 <acpi_get_rsd_ptr+0x3e>
  102a93:	83 45 f4 10          	addl   $0x10,-0xc(%ebp)
  102a97:	8b 45 f4             	mov    -0xc(%ebp),%eax
  102a9a:	3d ff ff 0f 00       	cmp    $0xfffff,%eax
  102a9f:	7e d6                	jle    102a77 <acpi_get_rsd_ptr+0xf>
  102aa1:	b8 00 00 00 00       	mov    $0x0,%eax
  102aa6:	c9                   	leave  
  102aa7:	c3                   	ret    

00102aa8 <acpi_check_header>:
  102aa8:	55                   	push   %ebp
  102aa9:	89 e5                	mov    %esp,%ebp
  102aab:	83 ec 18             	sub    $0x18,%esp
  102aae:	83 ec 04             	sub    $0x4,%esp
  102ab1:	6a 04                	push   $0x4
  102ab3:	ff 75 0c             	push   0xc(%ebp)
  102ab6:	ff 75 08             	push   0x8(%ebp)
  102ab9:	e8 bc 62 00 00       	call   108d7a <memcmp>
  102abe:	83 c4 10             	add    $0x10,%esp
  102ac1:	85 c0                	test   %eax,%eax
  102ac3:	75 43                	jne    102b08 <acpi_check_header+0x60>
  102ac5:	8b 45 08             	mov    0x8(%ebp),%eax
  102ac8:	89 45 f4             	mov    %eax,-0xc(%ebp)
  102acb:	8b 45 08             	mov    0x8(%ebp),%eax
  102ace:	83 c0 04             	add    $0x4,%eax
  102ad1:	8b 00                	mov    (%eax),%eax
  102ad3:	89 45 f0             	mov    %eax,-0x10(%ebp)
  102ad6:	c6 45 ef 00          	movb   $0x0,-0x11(%ebp)
  102ada:	eb 19                	jmp    102af5 <acpi_check_header+0x4d>
  102adc:	8b 45 f4             	mov    -0xc(%ebp),%eax
  102adf:	0f b6 00             	movzbl (%eax),%eax
  102ae2:	89 c2                	mov    %eax,%edx
  102ae4:	0f b6 45 ef          	movzbl -0x11(%ebp),%eax
  102ae8:	01 d0                	add    %edx,%eax
  102aea:	88 45 ef             	mov    %al,-0x11(%ebp)
  102aed:	83 45 f4 01          	addl   $0x1,-0xc(%ebp)
  102af1:	83 6d f0 01          	subl   $0x1,-0x10(%ebp)
  102af5:	83 7d f0 00          	cmpl   $0x0,-0x10(%ebp)
  102af9:	75 e1                	jne    102adc <acpi_check_header+0x34>
  102afb:	80 7d ef 00          	cmpb   $0x0,-0x11(%ebp)
  102aff:	75 07                	jne    102b08 <acpi_check_header+0x60>
  102b01:	b8 00 00 00 00       	mov    $0x0,%eax
  102b06:	eb 05                	jmp    102b0d <acpi_check_header+0x65>
  102b08:	b8 ff ff ff ff       	mov    $0xffffffff,%eax
  102b0d:	c9                   	leave  
  102b0e:	c3                   	ret    

00102b0f <acpi_enable>:
  102b0f:	55                   	push   %ebp
  102b10:	89 e5                	mov    %esp,%ebp
  102b12:	83 ec 18             	sub    $0x18,%esp
  102b15:	c6 05 03 09 14 00 00 	movb   $0x0,0x140903
  102b1c:	a1 f0 08 14 00       	mov    0x1408f0,%eax
  102b21:	83 ec 0c             	sub    $0xc,%esp
  102b24:	50                   	push   %eax
  102b25:	e8 a3 db ff ff       	call   1006cd <inw>
  102b2a:	83 c4 10             	add    $0x10,%esp
  102b2d:	0f b7 15 fe 08 14 00 	movzwl 0x1408fe,%edx
  102b34:	21 d0                	and    %edx,%eax
  102b36:	66 85 c0             	test   %ax,%ax
  102b39:	0f 85 cc 01 00 00    	jne    102d0b <acpi_enable+0x1fc>
  102b3f:	a1 e8 08 14 00       	mov    0x1408e8,%eax
  102b44:	85 c0                	test   %eax,%eax
  102b46:	0f 84 b2 02 00 00    	je     102dfe <acpi_enable+0x2ef>
  102b4c:	0f b6 05 ec 08 14 00 	movzbl 0x1408ec,%eax
  102b53:	84 c0                	test   %al,%al
  102b55:	0f 84 a3 02 00 00    	je     102dfe <acpi_enable+0x2ef>
  102b5b:	0f b6 05 ec 08 14 00 	movzbl 0x1408ec,%eax
  102b62:	0f b6 c0             	movzbl %al,%eax
  102b65:	8b 15 e8 08 14 00    	mov    0x1408e8,%edx
  102b6b:	83 ec 08             	sub    $0x8,%esp
  102b6e:	50                   	push   %eax
  102b6f:	52                   	push   %edx
  102b70:	e8 4b db ff ff       	call   1006c0 <outb>
  102b75:	83 c4 10             	add    $0x10,%esp
  102b78:	c7 45 f4 00 00 00 00 	movl   $0x0,-0xc(%ebp)
  102b7f:	eb 31                	jmp    102bb2 <acpi_enable+0xa3>
  102b81:	a1 f0 08 14 00       	mov    0x1408f0,%eax
  102b86:	83 ec 0c             	sub    $0xc,%esp
  102b89:	50                   	push   %eax
  102b8a:	e8 3e db ff ff       	call   1006cd <inw>
  102b8f:	83 c4 10             	add    $0x10,%esp
  102b92:	0f b7 15 fe 08 14 00 	movzwl 0x1408fe,%edx
  102b99:	21 d0                	and    %edx,%eax
  102b9b:	66 83 f8 01          	cmp    $0x1,%ax
  102b9f:	74 1c                	je     102bbd <acpi_enable+0xae>
  102ba1:	83 ec 0c             	sub    $0xc,%esp
  102ba4:	6a 0a                	push   $0xa
  102ba6:	e8 96 21 00 00       	call   104d41 <sleep>
  102bab:	83 c4 10             	add    $0x10,%esp
  102bae:	83 45 f4 01          	addl   $0x1,-0xc(%ebp)
  102bb2:	81 7d f4 2b 01 00 00 	cmpl   $0x12b,-0xc(%ebp)
  102bb9:	7e c6                	jle    102b81 <acpi_enable+0x72>
  102bbb:	eb 01                	jmp    102bbe <acpi_enable+0xaf>
  102bbd:	90                   	nop
  102bbe:	a1 f4 08 14 00       	mov    0x1408f4,%eax
  102bc3:	85 c0                	test   %eax,%eax
  102bc5:	74 3f                	je     102c06 <acpi_enable+0xf7>
  102bc7:	eb 31                	jmp    102bfa <acpi_enable+0xeb>
  102bc9:	a1 f4 08 14 00       	mov    0x1408f4,%eax
  102bce:	83 ec 0c             	sub    $0xc,%esp
  102bd1:	50                   	push   %eax
  102bd2:	e8 f6 da ff ff       	call   1006cd <inw>
  102bd7:	83 c4 10             	add    $0x10,%esp
  102bda:	0f b7 15 fe 08 14 00 	movzwl 0x1408fe,%edx
  102be1:	21 d0                	and    %edx,%eax
  102be3:	66 83 f8 01          	cmp    $0x1,%ax
  102be7:	74 1c                	je     102c05 <acpi_enable+0xf6>
  102be9:	83 ec 0c             	sub    $0xc,%esp
  102bec:	6a 0a                	push   $0xa
  102bee:	e8 4e 21 00 00       	call   104d41 <sleep>
  102bf3:	83 c4 10             	add    $0x10,%esp
  102bf6:	83 45 f4 01          	addl   $0x1,-0xc(%ebp)
  102bfa:	81 7d f4 2b 01 00 00 	cmpl   $0x12b,-0xc(%ebp)
  102c01:	7e c6                	jle    102bc9 <acpi_enable+0xba>
  102c03:	eb 01                	jmp    102c06 <acpi_enable+0xf7>
  102c05:	90                   	nop
  102c06:	81 7d f4 2b 01 00 00 	cmpl   $0x12b,-0xc(%ebp)
  102c0d:	0f 8f eb 01 00 00    	jg     102dfe <acpi_enable+0x2ef>
  102c13:	83 ec 0c             	sub    $0xc,%esp
  102c16:	68 e0 0d 14 00       	push   $0x140de0
  102c1b:	e8 aa 55 00 00       	call   1081ca <__redirect_printf__>
  102c20:	83 c4 10             	add    $0x10,%esp
  102c23:	83 ec 0c             	sub    $0xc,%esp
  102c26:	68 45 a2 10 00       	push   $0x10a245
  102c2b:	e8 82 5e 00 00       	call   108ab2 <printf>
  102c30:	83 c4 10             	add    $0x10,%esp
  102c33:	83 ec 0c             	sub    $0xc,%esp
  102c36:	6a 00                	push   $0x0
  102c38:	e8 8d 55 00 00       	call   1081ca <__redirect_printf__>
  102c3d:	83 c4 10             	add    $0x10,%esp
  102c40:	83 ec 0c             	sub    $0xc,%esp
  102c43:	8d 45 ee             	lea    -0x12(%ebp),%eax
  102c46:	50                   	push   %eax
  102c47:	e8 61 fa ff ff       	call   1026ad <cmos_read_rtc>
  102c4c:	83 c4 10             	add    $0x10,%esp
  102c4f:	83 ec 04             	sub    $0x4,%esp
  102c52:	68 cc 11 14 00       	push   $0x1411cc
  102c57:	83 ec 08             	sub    $0x8,%esp
  102c5a:	89 e0                	mov    %esp,%eax
  102c5c:	8b 55 ee             	mov    -0x12(%ebp),%edx
  102c5f:	89 10                	mov    %edx,(%eax)
  102c61:	0f b7 55 f2          	movzwl -0xe(%ebp),%edx
  102c65:	66 89 50 04          	mov    %dx,0x4(%eax)
  102c69:	e8 a4 1e 00 00       	call   104b12 <cmos_datetime_to_str>
  102c6e:	83 c4 10             	add    $0x10,%esp
  102c71:	83 ec 0c             	sub    $0xc,%esp
  102c74:	68 e0 09 14 00       	push   $0x1409e0
  102c79:	e8 4c 55 00 00       	call   1081ca <__redirect_printf__>
  102c7e:	83 c4 10             	add    $0x10,%esp
  102c81:	83 ec 04             	sub    $0x4,%esp
  102c84:	68 e0 0d 14 00       	push   $0x140de0
  102c89:	68 cc 11 14 00       	push   $0x1411cc
  102c8e:	68 56 a2 10 00       	push   $0x10a256
  102c93:	e8 1a 5e 00 00       	call   108ab2 <printf>
  102c98:	83 c4 10             	add    $0x10,%esp
  102c9b:	83 ec 0c             	sub    $0xc,%esp
  102c9e:	6a 00                	push   $0x0
  102ca0:	e8 25 55 00 00       	call   1081ca <__redirect_printf__>
  102ca5:	83 c4 10             	add    $0x10,%esp
  102ca8:	83 ec 08             	sub    $0x8,%esp
  102cab:	68 e0 09 14 00       	push   $0x1409e0
  102cb0:	68 f8 03 00 00       	push   $0x3f8
  102cb5:	e8 50 f5 ff ff       	call   10220a <com_write>
  102cba:	83 c4 10             	add    $0x10,%esp
  102cbd:	83 ec 04             	sub    $0x4,%esp
  102cc0:	68 00 04 00 00       	push   $0x400
  102cc5:	6a 00                	push   $0x0
  102cc7:	68 e0 09 14 00       	push   $0x1409e0
  102ccc:	e8 5a 61 00 00       	call   108e2b <memset>
  102cd1:	83 c4 10             	add    $0x10,%esp
  102cd4:	83 ec 04             	sub    $0x4,%esp
  102cd7:	68 ec 03 00 00       	push   $0x3ec
  102cdc:	6a 00                	push   $0x0
  102cde:	68 e0 0d 14 00       	push   $0x140de0
  102ce3:	e8 43 61 00 00       	call   108e2b <memset>
  102ce8:	83 c4 10             	add    $0x10,%esp
  102ceb:	83 ec 04             	sub    $0x4,%esp
  102cee:	6a 14                	push   $0x14
  102cf0:	6a 00                	push   $0x0
  102cf2:	68 cc 11 14 00       	push   $0x1411cc
  102cf7:	e8 2f 61 00 00       	call   108e2b <memset>
  102cfc:	83 c4 10             	add    $0x10,%esp
  102cff:	c6 05 03 09 14 00 01 	movb   $0x1,0x140903
  102d06:	e9 f3 00 00 00       	jmp    102dfe <acpi_enable+0x2ef>
  102d0b:	83 ec 0c             	sub    $0xc,%esp
  102d0e:	68 e0 0d 14 00       	push   $0x140de0
  102d13:	e8 b2 54 00 00       	call   1081ca <__redirect_printf__>
  102d18:	83 c4 10             	add    $0x10,%esp
  102d1b:	83 ec 0c             	sub    $0xc,%esp
  102d1e:	68 5c a2 10 00       	push   $0x10a25c
  102d23:	e8 8a 5d 00 00       	call   108ab2 <printf>
  102d28:	83 c4 10             	add    $0x10,%esp
  102d2b:	83 ec 0c             	sub    $0xc,%esp
  102d2e:	6a 00                	push   $0x0
  102d30:	e8 95 54 00 00       	call   1081ca <__redirect_printf__>
  102d35:	83 c4 10             	add    $0x10,%esp
  102d38:	83 ec 0c             	sub    $0xc,%esp
  102d3b:	8d 45 e8             	lea    -0x18(%ebp),%eax
  102d3e:	50                   	push   %eax
  102d3f:	e8 69 f9 ff ff       	call   1026ad <cmos_read_rtc>
  102d44:	83 c4 10             	add    $0x10,%esp
  102d47:	83 ec 04             	sub    $0x4,%esp
  102d4a:	68 cc 11 14 00       	push   $0x1411cc
  102d4f:	83 ec 08             	sub    $0x8,%esp
  102d52:	89 e0                	mov    %esp,%eax
  102d54:	8b 55 e8             	mov    -0x18(%ebp),%edx
  102d57:	89 10                	mov    %edx,(%eax)
  102d59:	0f b7 55 ec          	movzwl -0x14(%ebp),%edx
  102d5d:	66 89 50 04          	mov    %dx,0x4(%eax)
  102d61:	e8 ac 1d 00 00       	call   104b12 <cmos_datetime_to_str>
  102d66:	83 c4 10             	add    $0x10,%esp
  102d69:	83 ec 0c             	sub    $0xc,%esp
  102d6c:	68 e0 09 14 00       	push   $0x1409e0
  102d71:	e8 54 54 00 00       	call   1081ca <__redirect_printf__>
  102d76:	83 c4 10             	add    $0x10,%esp
  102d79:	83 ec 04             	sub    $0x4,%esp
  102d7c:	68 e0 0d 14 00       	push   $0x140de0
  102d81:	68 cc 11 14 00       	push   $0x1411cc
  102d86:	68 56 a2 10 00       	push   $0x10a256
  102d8b:	e8 22 5d 00 00       	call   108ab2 <printf>
  102d90:	83 c4 10             	add    $0x10,%esp
  102d93:	83 ec 0c             	sub    $0xc,%esp
  102d96:	6a 00                	push   $0x0
  102d98:	e8 2d 54 00 00       	call   1081ca <__redirect_printf__>
  102d9d:	83 c4 10             	add    $0x10,%esp
  102da0:	83 ec 08             	sub    $0x8,%esp
  102da3:	68 e0 09 14 00       	push   $0x1409e0
  102da8:	68 f8 03 00 00       	push   $0x3f8
  102dad:	e8 58 f4 ff ff       	call   10220a <com_write>
  102db2:	83 c4 10             	add    $0x10,%esp
  102db5:	83 ec 04             	sub    $0x4,%esp
  102db8:	68 00 04 00 00       	push   $0x400
  102dbd:	6a 00                	push   $0x0
  102dbf:	68 e0 09 14 00       	push   $0x1409e0
  102dc4:	e8 62 60 00 00       	call   108e2b <memset>
  102dc9:	83 c4 10             	add    $0x10,%esp
  102dcc:	83 ec 04             	sub    $0x4,%esp
  102dcf:	68 ec 03 00 00       	push   $0x3ec
  102dd4:	6a 00                	push   $0x0
  102dd6:	68 e0 0d 14 00       	push   $0x140de0
  102ddb:	e8 4b 60 00 00       	call   108e2b <memset>
  102de0:	83 c4 10             	add    $0x10,%esp
  102de3:	83 ec 04             	sub    $0x4,%esp
  102de6:	6a 14                	push   $0x14
  102de8:	6a 00                	push   $0x0
  102dea:	68 cc 11 14 00       	push   $0x1411cc
  102def:	e8 37 60 00 00       	call   108e2b <memset>
  102df4:	83 c4 10             	add    $0x10,%esp
  102df7:	c6 05 03 09 14 00 01 	movb   $0x1,0x140903
  102dfe:	90                   	nop
  102dff:	c9                   	leave  
  102e00:	c3                   	ret    

00102e01 <acpi_init>:
  102e01:	55                   	push   %ebp
  102e02:	89 e5                	mov    %esp,%ebp
  102e04:	83 ec 48             	sub    $0x48,%esp
  102e07:	c6 05 03 09 14 00 00 	movb   $0x0,0x140903
  102e0e:	c7 05 e8 08 14 00 00 	movl   $0x0,0x1408e8
  102e15:	00 00 00 
  102e18:	c6 05 ec 08 14 00 00 	movb   $0x0,0x1408ec
  102e1f:	c6 05 ed 08 14 00 00 	movb   $0x0,0x1408ed
  102e26:	c7 05 f0 08 14 00 00 	movl   $0x0,0x1408f0
  102e2d:	00 00 00 
  102e30:	c7 05 f4 08 14 00 00 	movl   $0x0,0x1408f4
  102e37:	00 00 00 
  102e3a:	66 c7 05 f8 08 14 00 	movw   $0x0,0x1408f8
  102e41:	00 00 
  102e43:	66 c7 05 fa 08 14 00 	movw   $0x0,0x1408fa
  102e4a:	00 00 
  102e4c:	66 c7 05 fc 08 14 00 	movw   $0x0,0x1408fc
  102e53:	00 00 
  102e55:	66 c7 05 fe 08 14 00 	movw   $0x0,0x1408fe
  102e5c:	00 00 
  102e5e:	c6 05 02 09 14 00 00 	movb   $0x0,0x140902
  102e65:	e8 fe fb ff ff       	call   102a68 <acpi_get_rsd_ptr>
  102e6a:	89 45 f4             	mov    %eax,-0xc(%ebp)
  102e6d:	83 7d f4 00          	cmpl   $0x0,-0xc(%ebp)
  102e71:	0f 84 cb 05 00 00    	je     103442 <acpi_init+0x641>
  102e77:	83 ec 08             	sub    $0x8,%esp
  102e7a:	68 73 a2 10 00       	push   $0x10a273
  102e7f:	ff 75 f4             	push   -0xc(%ebp)
  102e82:	e8 21 fc ff ff       	call   102aa8 <acpi_check_header>
  102e87:	83 c4 10             	add    $0x10,%esp
  102e8a:	85 c0                	test   %eax,%eax
  102e8c:	0f 85 b0 05 00 00    	jne    103442 <acpi_init+0x641>
  102e92:	8b 45 f4             	mov    -0xc(%ebp),%eax
  102e95:	83 c0 04             	add    $0x4,%eax
  102e98:	8b 00                	mov    (%eax),%eax
  102e9a:	89 45 f0             	mov    %eax,-0x10(%ebp)
  102e9d:	8b 45 f0             	mov    -0x10(%ebp),%eax
  102ea0:	83 e8 24             	sub    $0x24,%eax
  102ea3:	8d 50 03             	lea    0x3(%eax),%edx
  102ea6:	85 c0                	test   %eax,%eax
  102ea8:	0f 48 c2             	cmovs  %edx,%eax
  102eab:	c1 f8 02             	sar    $0x2,%eax
  102eae:	89 45 f0             	mov    %eax,-0x10(%ebp)
  102eb1:	83 45 f4 24          	addl   $0x24,-0xc(%ebp)
  102eb5:	e9 79 05 00 00       	jmp    103433 <acpi_init+0x632>
  102eba:	8b 45 f4             	mov    -0xc(%ebp),%eax
  102ebd:	8b 00                	mov    (%eax),%eax
  102ebf:	83 ec 08             	sub    $0x8,%esp
  102ec2:	68 78 a2 10 00       	push   $0x10a278
  102ec7:	50                   	push   %eax
  102ec8:	e8 db fb ff ff       	call   102aa8 <acpi_check_header>
  102ecd:	83 c4 10             	add    $0x10,%esp
  102ed0:	85 c0                	test   %eax,%eax
  102ed2:	0f 85 67 04 00 00    	jne    10333f <acpi_init+0x53e>
  102ed8:	c7 45 f0 fe ff ff ff 	movl   $0xfffffffe,-0x10(%ebp)
  102edf:	8b 45 f4             	mov    -0xc(%ebp),%eax
  102ee2:	8b 00                	mov    (%eax),%eax
  102ee4:	89 45 e4             	mov    %eax,-0x1c(%ebp)
  102ee7:	8b 45 e4             	mov    -0x1c(%ebp),%eax
  102eea:	89 45 e0             	mov    %eax,-0x20(%ebp)
  102eed:	8b 45 e0             	mov    -0x20(%ebp),%eax
  102ef0:	83 c0 6d             	add    $0x6d,%eax
  102ef3:	89 45 dc             	mov    %eax,-0x24(%ebp)
  102ef6:	8b 45 dc             	mov    -0x24(%ebp),%eax
  102ef9:	89 45 d8             	mov    %eax,-0x28(%ebp)
  102efc:	8b 45 d8             	mov    -0x28(%ebp),%eax
  102eff:	0f b7 00             	movzwl (%eax),%eax
  102f02:	66 a3 00 09 14 00    	mov    %ax,0x140900
  102f08:	8b 45 e4             	mov    -0x1c(%ebp),%eax
  102f0b:	8b 40 28             	mov    0x28(%eax),%eax
  102f0e:	83 ec 08             	sub    $0x8,%esp
  102f11:	68 7d a2 10 00       	push   $0x10a27d
  102f16:	50                   	push   %eax
  102f17:	e8 8c fb ff ff       	call   102aa8 <acpi_check_header>
  102f1c:	83 c4 10             	add    $0x10,%esp
  102f1f:	85 c0                	test   %eax,%eax
  102f21:	0f 85 27 03 00 00    	jne    10324e <acpi_init+0x44d>
  102f27:	8b 45 e4             	mov    -0x1c(%ebp),%eax
  102f2a:	8b 40 28             	mov    0x28(%eax),%eax
  102f2d:	83 c0 24             	add    $0x24,%eax
  102f30:	89 45 ec             	mov    %eax,-0x14(%ebp)
  102f33:	8b 45 e4             	mov    -0x1c(%ebp),%eax
  102f36:	8b 40 28             	mov    0x28(%eax),%eax
  102f39:	83 c0 04             	add    $0x4,%eax
  102f3c:	8b 00                	mov    (%eax),%eax
  102f3e:	83 e8 24             	sub    $0x24,%eax
  102f41:	89 45 e8             	mov    %eax,-0x18(%ebp)
  102f44:	eb 21                	jmp    102f67 <acpi_init+0x166>
  102f46:	83 ec 04             	sub    $0x4,%esp
  102f49:	6a 04                	push   $0x4
  102f4b:	68 82 a2 10 00       	push   $0x10a282
  102f50:	ff 75 ec             	push   -0x14(%ebp)
  102f53:	e8 22 5e 00 00       	call   108d7a <memcmp>
  102f58:	83 c4 10             	add    $0x10,%esp
  102f5b:	85 c0                	test   %eax,%eax
  102f5d:	74 10                	je     102f6f <acpi_init+0x16e>
  102f5f:	83 45 ec 01          	addl   $0x1,-0x14(%ebp)
  102f63:	83 6d e8 01          	subl   $0x1,-0x18(%ebp)
  102f67:	83 7d e8 00          	cmpl   $0x0,-0x18(%ebp)
  102f6b:	75 d9                	jne    102f46 <acpi_init+0x145>
  102f6d:	eb 01                	jmp    102f70 <acpi_init+0x16f>
  102f6f:	90                   	nop
  102f70:	83 7d e8 00          	cmpl   $0x0,-0x18(%ebp)
  102f74:	0f 8e e3 01 00 00    	jle    10315d <acpi_init+0x35c>
  102f7a:	8b 45 ec             	mov    -0x14(%ebp),%eax
  102f7d:	83 e8 01             	sub    $0x1,%eax
  102f80:	0f b6 00             	movzbl (%eax),%eax
  102f83:	3c 08                	cmp    $0x8,%al
  102f85:	74 22                	je     102fa9 <acpi_init+0x1a8>
  102f87:	8b 45 ec             	mov    -0x14(%ebp),%eax
  102f8a:	83 e8 02             	sub    $0x2,%eax
  102f8d:	0f b6 00             	movzbl (%eax),%eax
  102f90:	3c 08                	cmp    $0x8,%al
  102f92:	0f 85 93 04 00 00    	jne    10342b <acpi_init+0x62a>
  102f98:	8b 45 ec             	mov    -0x14(%ebp),%eax
  102f9b:	83 e8 01             	sub    $0x1,%eax
  102f9e:	0f b6 00             	movzbl (%eax),%eax
  102fa1:	3c 5c                	cmp    $0x5c,%al
  102fa3:	0f 85 82 04 00 00    	jne    10342b <acpi_init+0x62a>
  102fa9:	8b 45 ec             	mov    -0x14(%ebp),%eax
  102fac:	83 c0 04             	add    $0x4,%eax
  102faf:	0f b6 00             	movzbl (%eax),%eax
  102fb2:	3c 12                	cmp    $0x12,%al
  102fb4:	0f 85 71 04 00 00    	jne    10342b <acpi_init+0x62a>
  102fba:	83 45 ec 05          	addl   $0x5,-0x14(%ebp)
  102fbe:	8b 45 ec             	mov    -0x14(%ebp),%eax
  102fc1:	0f b6 00             	movzbl (%eax),%eax
  102fc4:	0f be c0             	movsbl %al,%eax
  102fc7:	c1 f8 06             	sar    $0x6,%eax
  102fca:	83 e0 03             	and    $0x3,%eax
  102fcd:	83 c0 02             	add    $0x2,%eax
  102fd0:	01 45 ec             	add    %eax,-0x14(%ebp)
  102fd3:	8b 45 ec             	mov    -0x14(%ebp),%eax
  102fd6:	0f b6 00             	movzbl (%eax),%eax
  102fd9:	3c 0a                	cmp    $0xa,%al
  102fdb:	75 04                	jne    102fe1 <acpi_init+0x1e0>
  102fdd:	83 45 ec 01          	addl   $0x1,-0x14(%ebp)
  102fe1:	8b 45 ec             	mov    -0x14(%ebp),%eax
  102fe4:	0f b6 00             	movzbl (%eax),%eax
  102fe7:	66 98                	cbtw   
  102fe9:	c1 e0 0a             	shl    $0xa,%eax
  102fec:	66 a3 f8 08 14 00    	mov    %ax,0x1408f8
  102ff2:	83 45 ec 01          	addl   $0x1,-0x14(%ebp)
  102ff6:	8b 45 ec             	mov    -0x14(%ebp),%eax
  102ff9:	0f b6 00             	movzbl (%eax),%eax
  102ffc:	3c 0a                	cmp    $0xa,%al
  102ffe:	75 04                	jne    103004 <acpi_init+0x203>
  103000:	83 45 ec 01          	addl   $0x1,-0x14(%ebp)
  103004:	8b 45 ec             	mov    -0x14(%ebp),%eax
  103007:	0f b6 00             	movzbl (%eax),%eax
  10300a:	66 98                	cbtw   
  10300c:	c1 e0 0a             	shl    $0xa,%eax
  10300f:	66 a3 fa 08 14 00    	mov    %ax,0x1408fa
  103015:	8b 45 e4             	mov    -0x1c(%ebp),%eax
  103018:	8b 40 30             	mov    0x30(%eax),%eax
  10301b:	a3 e8 08 14 00       	mov    %eax,0x1408e8
  103020:	8b 45 e4             	mov    -0x1c(%ebp),%eax
  103023:	0f b6 40 34          	movzbl 0x34(%eax),%eax
  103027:	a2 ec 08 14 00       	mov    %al,0x1408ec
  10302c:	8b 45 e4             	mov    -0x1c(%ebp),%eax
  10302f:	0f b6 40 35          	movzbl 0x35(%eax),%eax
  103033:	a2 ed 08 14 00       	mov    %al,0x1408ed
  103038:	8b 45 e4             	mov    -0x1c(%ebp),%eax
  10303b:	8b 40 40             	mov    0x40(%eax),%eax
  10303e:	a3 f0 08 14 00       	mov    %eax,0x1408f0
  103043:	8b 45 e4             	mov    -0x1c(%ebp),%eax
  103046:	8b 40 44             	mov    0x44(%eax),%eax
  103049:	a3 f4 08 14 00       	mov    %eax,0x1408f4
  10304e:	8b 45 e4             	mov    -0x1c(%ebp),%eax
  103051:	0f b6 40 59          	movzbl 0x59(%eax),%eax
  103055:	a2 02 09 14 00       	mov    %al,0x140902
  10305a:	66 c7 05 fc 08 14 00 	movw   $0x2000,0x1408fc
  103061:	00 20 
  103063:	66 c7 05 fe 08 14 00 	movw   $0x1,0x1408fe
  10306a:	01 00 
  10306c:	83 ec 0c             	sub    $0xc,%esp
  10306f:	68 e0 0d 14 00       	push   $0x140de0
  103074:	e8 51 51 00 00       	call   1081ca <__redirect_printf__>
  103079:	83 c4 10             	add    $0x10,%esp
  10307c:	83 ec 0c             	sub    $0xc,%esp
  10307f:	68 87 a2 10 00       	push   $0x10a287
  103084:	e8 29 5a 00 00       	call   108ab2 <printf>
  103089:	83 c4 10             	add    $0x10,%esp
  10308c:	83 ec 0c             	sub    $0xc,%esp
  10308f:	6a 00                	push   $0x0
  103091:	e8 34 51 00 00       	call   1081ca <__redirect_printf__>
  103096:	83 c4 10             	add    $0x10,%esp
  103099:	83 ec 0c             	sub    $0xc,%esp
  10309c:	8d 45 d2             	lea    -0x2e(%ebp),%eax
  10309f:	50                   	push   %eax
  1030a0:	e8 08 f6 ff ff       	call   1026ad <cmos_read_rtc>
  1030a5:	83 c4 10             	add    $0x10,%esp
  1030a8:	83 ec 04             	sub    $0x4,%esp
  1030ab:	68 cc 11 14 00       	push   $0x1411cc
  1030b0:	83 ec 08             	sub    $0x8,%esp
  1030b3:	89 e0                	mov    %esp,%eax
  1030b5:	8b 55 d2             	mov    -0x2e(%ebp),%edx
  1030b8:	89 10                	mov    %edx,(%eax)
  1030ba:	0f b7 55 d6          	movzwl -0x2a(%ebp),%edx
  1030be:	66 89 50 04          	mov    %dx,0x4(%eax)
  1030c2:	e8 4b 1a 00 00       	call   104b12 <cmos_datetime_to_str>
  1030c7:	83 c4 10             	add    $0x10,%esp
  1030ca:	83 ec 0c             	sub    $0xc,%esp
  1030cd:	68 e0 09 14 00       	push   $0x1409e0
  1030d2:	e8 f3 50 00 00       	call   1081ca <__redirect_printf__>
  1030d7:	83 c4 10             	add    $0x10,%esp
  1030da:	83 ec 04             	sub    $0x4,%esp
  1030dd:	68 e0 0d 14 00       	push   $0x140de0
  1030e2:	68 cc 11 14 00       	push   $0x1411cc
  1030e7:	68 56 a2 10 00       	push   $0x10a256
  1030ec:	e8 c1 59 00 00       	call   108ab2 <printf>
  1030f1:	83 c4 10             	add    $0x10,%esp
  1030f4:	83 ec 0c             	sub    $0xc,%esp
  1030f7:	6a 00                	push   $0x0
  1030f9:	e8 cc 50 00 00       	call   1081ca <__redirect_printf__>
  1030fe:	83 c4 10             	add    $0x10,%esp
  103101:	83 ec 08             	sub    $0x8,%esp
  103104:	68 e0 09 14 00       	push   $0x1409e0
  103109:	68 f8 03 00 00       	push   $0x3f8
  10310e:	e8 f7 f0 ff ff       	call   10220a <com_write>
  103113:	83 c4 10             	add    $0x10,%esp
  103116:	83 ec 04             	sub    $0x4,%esp
  103119:	68 00 04 00 00       	push   $0x400
  10311e:	6a 00                	push   $0x0
  103120:	68 e0 09 14 00       	push   $0x1409e0
  103125:	e8 01 5d 00 00       	call   108e2b <memset>
  10312a:	83 c4 10             	add    $0x10,%esp
  10312d:	83 ec 04             	sub    $0x4,%esp
  103130:	68 ec 03 00 00       	push   $0x3ec
  103135:	6a 00                	push   $0x0
  103137:	68 e0 0d 14 00       	push   $0x140de0
  10313c:	e8 ea 5c 00 00       	call   108e2b <memset>
  103141:	83 c4 10             	add    $0x10,%esp
  103144:	83 ec 04             	sub    $0x4,%esp
  103147:	6a 14                	push   $0x14
  103149:	6a 00                	push   $0x0
  10314b:	68 cc 11 14 00       	push   $0x1411cc
  103150:	e8 d6 5c 00 00       	call   108e2b <memset>
  103155:	83 c4 10             	add    $0x10,%esp
  103158:	e9 da 03 00 00       	jmp    103537 <acpi_init+0x736>
  10315d:	83 ec 0c             	sub    $0xc,%esp
  103160:	68 e0 0d 14 00       	push   $0x140de0
  103165:	e8 60 50 00 00       	call   1081ca <__redirect_printf__>
  10316a:	83 c4 10             	add    $0x10,%esp
  10316d:	83 ec 0c             	sub    $0xc,%esp
  103170:	68 9c a2 10 00       	push   $0x10a29c
  103175:	e8 38 59 00 00       	call   108ab2 <printf>
  10317a:	83 c4 10             	add    $0x10,%esp
  10317d:	83 ec 0c             	sub    $0xc,%esp
  103180:	6a 00                	push   $0x0
  103182:	e8 43 50 00 00       	call   1081ca <__redirect_printf__>
  103187:	83 c4 10             	add    $0x10,%esp
  10318a:	83 ec 0c             	sub    $0xc,%esp
  10318d:	8d 45 cc             	lea    -0x34(%ebp),%eax
  103190:	50                   	push   %eax
  103191:	e8 17 f5 ff ff       	call   1026ad <cmos_read_rtc>
  103196:	83 c4 10             	add    $0x10,%esp
  103199:	83 ec 04             	sub    $0x4,%esp
  10319c:	68 cc 11 14 00       	push   $0x1411cc
  1031a1:	83 ec 08             	sub    $0x8,%esp
  1031a4:	89 e0                	mov    %esp,%eax
  1031a6:	8b 55 cc             	mov    -0x34(%ebp),%edx
  1031a9:	89 10                	mov    %edx,(%eax)
  1031ab:	0f b7 55 d0          	movzwl -0x30(%ebp),%edx
  1031af:	66 89 50 04          	mov    %dx,0x4(%eax)
  1031b3:	e8 5a 19 00 00       	call   104b12 <cmos_datetime_to_str>
  1031b8:	83 c4 10             	add    $0x10,%esp
  1031bb:	83 ec 0c             	sub    $0xc,%esp
  1031be:	68 e0 09 14 00       	push   $0x1409e0
  1031c3:	e8 02 50 00 00       	call   1081ca <__redirect_printf__>
  1031c8:	83 c4 10             	add    $0x10,%esp
  1031cb:	83 ec 04             	sub    $0x4,%esp
  1031ce:	68 e0 0d 14 00       	push   $0x140de0
  1031d3:	68 cc 11 14 00       	push   $0x1411cc
  1031d8:	68 56 a2 10 00       	push   $0x10a256
  1031dd:	e8 d0 58 00 00       	call   108ab2 <printf>
  1031e2:	83 c4 10             	add    $0x10,%esp
  1031e5:	83 ec 0c             	sub    $0xc,%esp
  1031e8:	6a 00                	push   $0x0
  1031ea:	e8 db 4f 00 00       	call   1081ca <__redirect_printf__>
  1031ef:	83 c4 10             	add    $0x10,%esp
  1031f2:	83 ec 08             	sub    $0x8,%esp
  1031f5:	68 e0 09 14 00       	push   $0x1409e0
  1031fa:	68 f8 03 00 00       	push   $0x3f8
  1031ff:	e8 06 f0 ff ff       	call   10220a <com_write>
  103204:	83 c4 10             	add    $0x10,%esp
  103207:	83 ec 04             	sub    $0x4,%esp
  10320a:	68 00 04 00 00       	push   $0x400
  10320f:	6a 00                	push   $0x0
  103211:	68 e0 09 14 00       	push   $0x1409e0
  103216:	e8 10 5c 00 00       	call   108e2b <memset>
  10321b:	83 c4 10             	add    $0x10,%esp
  10321e:	83 ec 04             	sub    $0x4,%esp
  103221:	68 ec 03 00 00       	push   $0x3ec
  103226:	6a 00                	push   $0x0
  103228:	68 e0 0d 14 00       	push   $0x140de0
  10322d:	e8 f9 5b 00 00       	call   108e2b <memset>
  103232:	83 c4 10             	add    $0x10,%esp
  103235:	83 ec 04             	sub    $0x4,%esp
  103238:	6a 14                	push   $0x14
  10323a:	6a 00                	push   $0x0
  10323c:	68 cc 11 14 00       	push   $0x1411cc
  103241:	e8 e5 5b 00 00       	call   108e2b <memset>
  103246:	83 c4 10             	add    $0x10,%esp
  103249:	e9 dd 01 00 00       	jmp    10342b <acpi_init+0x62a>
  10324e:	83 ec 0c             	sub    $0xc,%esp
  103251:	68 e0 0d 14 00       	push   $0x140de0
  103256:	e8 6f 4f 00 00       	call   1081ca <__redirect_printf__>
  10325b:	83 c4 10             	add    $0x10,%esp
  10325e:	83 ec 0c             	sub    $0xc,%esp
  103261:	68 c4 a2 10 00       	push   $0x10a2c4
  103266:	e8 47 58 00 00       	call   108ab2 <printf>
  10326b:	83 c4 10             	add    $0x10,%esp
  10326e:	83 ec 0c             	sub    $0xc,%esp
  103271:	6a 00                	push   $0x0
  103273:	e8 52 4f 00 00       	call   1081ca <__redirect_printf__>
  103278:	83 c4 10             	add    $0x10,%esp
  10327b:	83 ec 0c             	sub    $0xc,%esp
  10327e:	8d 45 c6             	lea    -0x3a(%ebp),%eax
  103281:	50                   	push   %eax
  103282:	e8 26 f4 ff ff       	call   1026ad <cmos_read_rtc>
  103287:	83 c4 10             	add    $0x10,%esp
  10328a:	83 ec 04             	sub    $0x4,%esp
  10328d:	68 cc 11 14 00       	push   $0x1411cc
  103292:	83 ec 08             	sub    $0x8,%esp
  103295:	89 e0                	mov    %esp,%eax
  103297:	8b 55 c6             	mov    -0x3a(%ebp),%edx
  10329a:	89 10                	mov    %edx,(%eax)
  10329c:	0f b7 55 ca          	movzwl -0x36(%ebp),%edx
  1032a0:	66 89 50 04          	mov    %dx,0x4(%eax)
  1032a4:	e8 69 18 00 00       	call   104b12 <cmos_datetime_to_str>
  1032a9:	83 c4 10             	add    $0x10,%esp
  1032ac:	83 ec 0c             	sub    $0xc,%esp
  1032af:	68 e0 09 14 00       	push   $0x1409e0
  1032b4:	e8 11 4f 00 00       	call   1081ca <__redirect_printf__>
  1032b9:	83 c4 10             	add    $0x10,%esp
  1032bc:	83 ec 04             	sub    $0x4,%esp
  1032bf:	68 e0 0d 14 00       	push   $0x140de0
  1032c4:	68 cc 11 14 00       	push   $0x1411cc
  1032c9:	68 56 a2 10 00       	push   $0x10a256
  1032ce:	e8 df 57 00 00       	call   108ab2 <printf>
  1032d3:	83 c4 10             	add    $0x10,%esp
  1032d6:	83 ec 0c             	sub    $0xc,%esp
  1032d9:	6a 00                	push   $0x0
  1032db:	e8 ea 4e 00 00       	call   1081ca <__redirect_printf__>
  1032e0:	83 c4 10             	add    $0x10,%esp
  1032e3:	83 ec 08             	sub    $0x8,%esp
  1032e6:	68 e0 09 14 00       	push   $0x1409e0
  1032eb:	68 f8 03 00 00       	push   $0x3f8
  1032f0:	e8 15 ef ff ff       	call   10220a <com_write>
  1032f5:	83 c4 10             	add    $0x10,%esp
  1032f8:	83 ec 04             	sub    $0x4,%esp
  1032fb:	68 00 04 00 00       	push   $0x400
  103300:	6a 00                	push   $0x0
  103302:	68 e0 09 14 00       	push   $0x1409e0
  103307:	e8 1f 5b 00 00       	call   108e2b <memset>
  10330c:	83 c4 10             	add    $0x10,%esp
  10330f:	83 ec 04             	sub    $0x4,%esp
  103312:	68 ec 03 00 00       	push   $0x3ec
  103317:	6a 00                	push   $0x0
  103319:	68 e0 0d 14 00       	push   $0x140de0
  10331e:	e8 08 5b 00 00       	call   108e2b <memset>
  103323:	83 c4 10             	add    $0x10,%esp
  103326:	83 ec 04             	sub    $0x4,%esp
  103329:	6a 14                	push   $0x14
  10332b:	6a 00                	push   $0x0
  10332d:	68 cc 11 14 00       	push   $0x1411cc
  103332:	e8 f4 5a 00 00       	call   108e2b <memset>
  103337:	83 c4 10             	add    $0x10,%esp
  10333a:	e9 ec 00 00 00       	jmp    10342b <acpi_init+0x62a>
  10333f:	83 ec 0c             	sub    $0xc,%esp
  103342:	68 e0 0d 14 00       	push   $0x140de0
  103347:	e8 7e 4e 00 00       	call   1081ca <__redirect_printf__>
  10334c:	83 c4 10             	add    $0x10,%esp
  10334f:	83 ec 0c             	sub    $0xc,%esp
  103352:	68 ec a2 10 00       	push   $0x10a2ec
  103357:	e8 56 57 00 00       	call   108ab2 <printf>
  10335c:	83 c4 10             	add    $0x10,%esp
  10335f:	83 ec 0c             	sub    $0xc,%esp
  103362:	6a 00                	push   $0x0
  103364:	e8 61 4e 00 00       	call   1081ca <__redirect_printf__>
  103369:	83 c4 10             	add    $0x10,%esp
  10336c:	83 ec 0c             	sub    $0xc,%esp
  10336f:	8d 45 c0             	lea    -0x40(%ebp),%eax
  103372:	50                   	push   %eax
  103373:	e8 35 f3 ff ff       	call   1026ad <cmos_read_rtc>
  103378:	83 c4 10             	add    $0x10,%esp
  10337b:	83 ec 04             	sub    $0x4,%esp
  10337e:	68 cc 11 14 00       	push   $0x1411cc
  103383:	83 ec 08             	sub    $0x8,%esp
  103386:	89 e0                	mov    %esp,%eax
  103388:	8b 55 c0             	mov    -0x40(%ebp),%edx
  10338b:	89 10                	mov    %edx,(%eax)
  10338d:	0f b7 55 c4          	movzwl -0x3c(%ebp),%edx
  103391:	66 89 50 04          	mov    %dx,0x4(%eax)
  103395:	e8 78 17 00 00       	call   104b12 <cmos_datetime_to_str>
  10339a:	83 c4 10             	add    $0x10,%esp
  10339d:	83 ec 0c             	sub    $0xc,%esp
  1033a0:	68 e0 09 14 00       	push   $0x1409e0
  1033a5:	e8 20 4e 00 00       	call   1081ca <__redirect_printf__>
  1033aa:	83 c4 10             	add    $0x10,%esp
  1033ad:	83 ec 04             	sub    $0x4,%esp
  1033b0:	68 e0 0d 14 00       	push   $0x140de0
  1033b5:	68 cc 11 14 00       	push   $0x1411cc
  1033ba:	68 56 a2 10 00       	push   $0x10a256
  1033bf:	e8 ee 56 00 00       	call   108ab2 <printf>
  1033c4:	83 c4 10             	add    $0x10,%esp
  1033c7:	83 ec 0c             	sub    $0xc,%esp
  1033ca:	6a 00                	push   $0x0
  1033cc:	e8 f9 4d 00 00       	call   1081ca <__redirect_printf__>
  1033d1:	83 c4 10             	add    $0x10,%esp
  1033d4:	83 ec 08             	sub    $0x8,%esp
  1033d7:	68 e0 09 14 00       	push   $0x1409e0
  1033dc:	68 f8 03 00 00       	push   $0x3f8
  1033e1:	e8 24 ee ff ff       	call   10220a <com_write>
  1033e6:	83 c4 10             	add    $0x10,%esp
  1033e9:	83 ec 04             	sub    $0x4,%esp
  1033ec:	68 00 04 00 00       	push   $0x400
  1033f1:	6a 00                	push   $0x0
  1033f3:	68 e0 09 14 00       	push   $0x1409e0
  1033f8:	e8 2e 5a 00 00       	call   108e2b <memset>
  1033fd:	83 c4 10             	add    $0x10,%esp
  103400:	83 ec 04             	sub    $0x4,%esp
  103403:	68 ec 03 00 00       	push   $0x3ec
  103408:	6a 00                	push   $0x0
  10340a:	68 e0 0d 14 00       	push   $0x140de0
  10340f:	e8 17 5a 00 00       	call   108e2b <memset>
  103414:	83 c4 10             	add    $0x10,%esp
  103417:	83 ec 04             	sub    $0x4,%esp
  10341a:	6a 14                	push   $0x14
  10341c:	6a 00                	push   $0x0
  10341e:	68 cc 11 14 00       	push   $0x1411cc
  103423:	e8 03 5a 00 00       	call   108e2b <memset>
  103428:	83 c4 10             	add    $0x10,%esp
  10342b:	83 45 f4 04          	addl   $0x4,-0xc(%ebp)
  10342f:	83 6d f0 01          	subl   $0x1,-0x10(%ebp)
  103433:	83 7d f0 00          	cmpl   $0x0,-0x10(%ebp)
  103437:	0f 8f 7d fa ff ff    	jg     102eba <acpi_init+0xb9>
  10343d:	e9 ec 00 00 00       	jmp    10352e <acpi_init+0x72d>
  103442:	83 ec 0c             	sub    $0xc,%esp
  103445:	68 e0 0d 14 00       	push   $0x140de0
  10344a:	e8 7b 4d 00 00       	call   1081ca <__redirect_printf__>
  10344f:	83 c4 10             	add    $0x10,%esp
  103452:	83 ec 0c             	sub    $0xc,%esp
  103455:	68 14 a3 10 00       	push   $0x10a314
  10345a:	e8 53 56 00 00       	call   108ab2 <printf>
  10345f:	83 c4 10             	add    $0x10,%esp
  103462:	83 ec 0c             	sub    $0xc,%esp
  103465:	6a 00                	push   $0x0
  103467:	e8 5e 4d 00 00       	call   1081ca <__redirect_printf__>
  10346c:	83 c4 10             	add    $0x10,%esp
  10346f:	83 ec 0c             	sub    $0xc,%esp
  103472:	8d 45 ba             	lea    -0x46(%ebp),%eax
  103475:	50                   	push   %eax
  103476:	e8 32 f2 ff ff       	call   1026ad <cmos_read_rtc>
  10347b:	83 c4 10             	add    $0x10,%esp
  10347e:	83 ec 04             	sub    $0x4,%esp
  103481:	68 cc 11 14 00       	push   $0x1411cc
  103486:	83 ec 08             	sub    $0x8,%esp
  103489:	89 e0                	mov    %esp,%eax
  10348b:	8b 55 ba             	mov    -0x46(%ebp),%edx
  10348e:	89 10                	mov    %edx,(%eax)
  103490:	0f b7 55 be          	movzwl -0x42(%ebp),%edx
  103494:	66 89 50 04          	mov    %dx,0x4(%eax)
  103498:	e8 75 16 00 00       	call   104b12 <cmos_datetime_to_str>
  10349d:	83 c4 10             	add    $0x10,%esp
  1034a0:	83 ec 0c             	sub    $0xc,%esp
  1034a3:	68 e0 09 14 00       	push   $0x1409e0
  1034a8:	e8 1d 4d 00 00       	call   1081ca <__redirect_printf__>
  1034ad:	83 c4 10             	add    $0x10,%esp
  1034b0:	83 ec 04             	sub    $0x4,%esp
  1034b3:	68 e0 0d 14 00       	push   $0x140de0
  1034b8:	68 cc 11 14 00       	push   $0x1411cc
  1034bd:	68 56 a2 10 00       	push   $0x10a256
  1034c2:	e8 eb 55 00 00       	call   108ab2 <printf>
  1034c7:	83 c4 10             	add    $0x10,%esp
  1034ca:	83 ec 0c             	sub    $0xc,%esp
  1034cd:	6a 00                	push   $0x0
  1034cf:	e8 f6 4c 00 00       	call   1081ca <__redirect_printf__>
  1034d4:	83 c4 10             	add    $0x10,%esp
  1034d7:	83 ec 08             	sub    $0x8,%esp
  1034da:	68 e0 09 14 00       	push   $0x1409e0
  1034df:	68 f8 03 00 00       	push   $0x3f8
  1034e4:	e8 21 ed ff ff       	call   10220a <com_write>
  1034e9:	83 c4 10             	add    $0x10,%esp
  1034ec:	83 ec 04             	sub    $0x4,%esp
  1034ef:	68 00 04 00 00       	push   $0x400
  1034f4:	6a 00                	push   $0x0
  1034f6:	68 e0 09 14 00       	push   $0x1409e0
  1034fb:	e8 2b 59 00 00       	call   108e2b <memset>
  103500:	83 c4 10             	add    $0x10,%esp
  103503:	83 ec 04             	sub    $0x4,%esp
  103506:	68 ec 03 00 00       	push   $0x3ec
  10350b:	6a 00                	push   $0x0
  10350d:	68 e0 0d 14 00       	push   $0x140de0
  103512:	e8 14 59 00 00       	call   108e2b <memset>
  103517:	83 c4 10             	add    $0x10,%esp
  10351a:	83 ec 04             	sub    $0x4,%esp
  10351d:	6a 14                	push   $0x14
  10351f:	6a 00                	push   $0x0
  103521:	68 cc 11 14 00       	push   $0x1411cc
  103526:	e8 00 59 00 00       	call   108e2b <memset>
  10352b:	83 c4 10             	add    $0x10,%esp
  10352e:	66 c7 05 fe 08 14 00 	movw   $0x0,0x1408fe
  103535:	00 00 
  103537:	c9                   	leave  
  103538:	c3                   	ret    

00103539 <acpi_shutdown>:
  103539:	55                   	push   %ebp
  10353a:	89 e5                	mov    %esp,%ebp
  10353c:	83 ec 28             	sub    $0x28,%esp
  10353f:	e8 49 03 00 00       	call   10388d <acpi_is_initialized>
  103544:	84 c0                	test   %al,%al
  103546:	0f 85 f1 00 00 00    	jne    10363d <acpi_shutdown+0x104>
  10354c:	83 ec 0c             	sub    $0xc,%esp
  10354f:	68 e0 0d 14 00       	push   $0x140de0
  103554:	e8 71 4c 00 00       	call   1081ca <__redirect_printf__>
  103559:	83 c4 10             	add    $0x10,%esp
  10355c:	83 ec 0c             	sub    $0xc,%esp
  10355f:	68 3c a3 10 00       	push   $0x10a33c
  103564:	e8 49 55 00 00       	call   108ab2 <printf>
  103569:	83 c4 10             	add    $0x10,%esp
  10356c:	83 ec 0c             	sub    $0xc,%esp
  10356f:	6a 00                	push   $0x0
  103571:	e8 54 4c 00 00       	call   1081ca <__redirect_printf__>
  103576:	83 c4 10             	add    $0x10,%esp
  103579:	83 ec 0c             	sub    $0xc,%esp
  10357c:	8d 45 f2             	lea    -0xe(%ebp),%eax
  10357f:	50                   	push   %eax
  103580:	e8 28 f1 ff ff       	call   1026ad <cmos_read_rtc>
  103585:	83 c4 10             	add    $0x10,%esp
  103588:	83 ec 04             	sub    $0x4,%esp
  10358b:	68 cc 11 14 00       	push   $0x1411cc
  103590:	83 ec 08             	sub    $0x8,%esp
  103593:	89 e0                	mov    %esp,%eax
  103595:	8b 55 f2             	mov    -0xe(%ebp),%edx
  103598:	89 10                	mov    %edx,(%eax)
  10359a:	0f b7 55 f6          	movzwl -0xa(%ebp),%edx
  10359e:	66 89 50 04          	mov    %dx,0x4(%eax)
  1035a2:	e8 6b 15 00 00       	call   104b12 <cmos_datetime_to_str>
  1035a7:	83 c4 10             	add    $0x10,%esp
  1035aa:	83 ec 0c             	sub    $0xc,%esp
  1035ad:	68 e0 09 14 00       	push   $0x1409e0
  1035b2:	e8 13 4c 00 00       	call   1081ca <__redirect_printf__>
  1035b7:	83 c4 10             	add    $0x10,%esp
  1035ba:	83 ec 04             	sub    $0x4,%esp
  1035bd:	68 e0 0d 14 00       	push   $0x140de0
  1035c2:	68 cc 11 14 00       	push   $0x1411cc
  1035c7:	68 56 a2 10 00       	push   $0x10a256
  1035cc:	e8 e1 54 00 00       	call   108ab2 <printf>
  1035d1:	83 c4 10             	add    $0x10,%esp
  1035d4:	83 ec 0c             	sub    $0xc,%esp
  1035d7:	6a 00                	push   $0x0
  1035d9:	e8 ec 4b 00 00       	call   1081ca <__redirect_printf__>
  1035de:	83 c4 10             	add    $0x10,%esp
  1035e1:	83 ec 08             	sub    $0x8,%esp
  1035e4:	68 e0 09 14 00       	push   $0x1409e0
  1035e9:	68 f8 03 00 00       	push   $0x3f8
  1035ee:	e8 17 ec ff ff       	call   10220a <com_write>
  1035f3:	83 c4 10             	add    $0x10,%esp
  1035f6:	83 ec 04             	sub    $0x4,%esp
  1035f9:	68 00 04 00 00       	push   $0x400
  1035fe:	6a 00                	push   $0x0
  103600:	68 e0 09 14 00       	push   $0x1409e0
  103605:	e8 21 58 00 00       	call   108e2b <memset>
  10360a:	83 c4 10             	add    $0x10,%esp
  10360d:	83 ec 04             	sub    $0x4,%esp
  103610:	68 ec 03 00 00       	push   $0x3ec
  103615:	6a 00                	push   $0x0
  103617:	68 e0 0d 14 00       	push   $0x140de0
  10361c:	e8 0a 58 00 00       	call   108e2b <memset>
  103621:	83 c4 10             	add    $0x10,%esp
  103624:	83 ec 04             	sub    $0x4,%esp
  103627:	6a 14                	push   $0x14
  103629:	6a 00                	push   $0x0
  10362b:	68 cc 11 14 00       	push   $0x1411cc
  103630:	e8 f6 57 00 00       	call   108e2b <memset>
  103635:	83 c4 10             	add    $0x10,%esp
  103638:	e9 41 02 00 00       	jmp    10387e <acpi_shutdown+0x345>
  10363d:	0f b6 05 03 09 14 00 	movzbl 0x140903,%eax
  103644:	84 c0                	test   %al,%al
  103646:	0f 85 f1 00 00 00    	jne    10373d <acpi_shutdown+0x204>
  10364c:	83 ec 0c             	sub    $0xc,%esp
  10364f:	68 e0 0d 14 00       	push   $0x140de0
  103654:	e8 71 4b 00 00       	call   1081ca <__redirect_printf__>
  103659:	83 c4 10             	add    $0x10,%esp
  10365c:	83 ec 0c             	sub    $0xc,%esp
  10365f:	68 70 a3 10 00       	push   $0x10a370
  103664:	e8 49 54 00 00       	call   108ab2 <printf>
  103669:	83 c4 10             	add    $0x10,%esp
  10366c:	83 ec 0c             	sub    $0xc,%esp
  10366f:	6a 00                	push   $0x0
  103671:	e8 54 4b 00 00       	call   1081ca <__redirect_printf__>
  103676:	83 c4 10             	add    $0x10,%esp
  103679:	83 ec 0c             	sub    $0xc,%esp
  10367c:	8d 45 ec             	lea    -0x14(%ebp),%eax
  10367f:	50                   	push   %eax
  103680:	e8 28 f0 ff ff       	call   1026ad <cmos_read_rtc>
  103685:	83 c4 10             	add    $0x10,%esp
  103688:	83 ec 04             	sub    $0x4,%esp
  10368b:	68 cc 11 14 00       	push   $0x1411cc
  103690:	83 ec 08             	sub    $0x8,%esp
  103693:	89 e0                	mov    %esp,%eax
  103695:	8b 55 ec             	mov    -0x14(%ebp),%edx
  103698:	89 10                	mov    %edx,(%eax)
  10369a:	0f b7 55 f0          	movzwl -0x10(%ebp),%edx
  10369e:	66 89 50 04          	mov    %dx,0x4(%eax)
  1036a2:	e8 6b 14 00 00       	call   104b12 <cmos_datetime_to_str>
  1036a7:	83 c4 10             	add    $0x10,%esp
  1036aa:	83 ec 0c             	sub    $0xc,%esp
  1036ad:	68 e0 09 14 00       	push   $0x1409e0
  1036b2:	e8 13 4b 00 00       	call   1081ca <__redirect_printf__>
  1036b7:	83 c4 10             	add    $0x10,%esp
  1036ba:	83 ec 04             	sub    $0x4,%esp
  1036bd:	68 e0 0d 14 00       	push   $0x140de0
  1036c2:	68 cc 11 14 00       	push   $0x1411cc
  1036c7:	68 56 a2 10 00       	push   $0x10a256
  1036cc:	e8 e1 53 00 00       	call   108ab2 <printf>
  1036d1:	83 c4 10             	add    $0x10,%esp
  1036d4:	83 ec 0c             	sub    $0xc,%esp
  1036d7:	6a 00                	push   $0x0
  1036d9:	e8 ec 4a 00 00       	call   1081ca <__redirect_printf__>
  1036de:	83 c4 10             	add    $0x10,%esp
  1036e1:	83 ec 08             	sub    $0x8,%esp
  1036e4:	68 e0 09 14 00       	push   $0x1409e0
  1036e9:	68 f8 03 00 00       	push   $0x3f8
  1036ee:	e8 17 eb ff ff       	call   10220a <com_write>
  1036f3:	83 c4 10             	add    $0x10,%esp
  1036f6:	83 ec 04             	sub    $0x4,%esp
  1036f9:	68 00 04 00 00       	push   $0x400
  1036fe:	6a 00                	push   $0x0
  103700:	68 e0 09 14 00       	push   $0x1409e0
  103705:	e8 21 57 00 00       	call   108e2b <memset>
  10370a:	83 c4 10             	add    $0x10,%esp
  10370d:	83 ec 04             	sub    $0x4,%esp
  103710:	68 ec 03 00 00       	push   $0x3ec
  103715:	6a 00                	push   $0x0
  103717:	68 e0 0d 14 00       	push   $0x140de0
  10371c:	e8 0a 57 00 00       	call   108e2b <memset>
  103721:	83 c4 10             	add    $0x10,%esp
  103724:	83 ec 04             	sub    $0x4,%esp
  103727:	6a 14                	push   $0x14
  103729:	6a 00                	push   $0x0
  10372b:	68 cc 11 14 00       	push   $0x1411cc
  103730:	e8 f6 56 00 00       	call   108e2b <memset>
  103735:	83 c4 10             	add    $0x10,%esp
  103738:	e9 41 01 00 00       	jmp    10387e <acpi_shutdown+0x345>
  10373d:	83 ec 0c             	sub    $0xc,%esp
  103740:	68 e0 0d 14 00       	push   $0x140de0
  103745:	e8 80 4a 00 00       	call   1081ca <__redirect_printf__>
  10374a:	83 c4 10             	add    $0x10,%esp
  10374d:	83 ec 0c             	sub    $0xc,%esp
  103750:	68 9c a3 10 00       	push   $0x10a39c
  103755:	e8 58 53 00 00       	call   108ab2 <printf>
  10375a:	83 c4 10             	add    $0x10,%esp
  10375d:	83 ec 0c             	sub    $0xc,%esp
  103760:	6a 00                	push   $0x0
  103762:	e8 63 4a 00 00       	call   1081ca <__redirect_printf__>
  103767:	83 c4 10             	add    $0x10,%esp
  10376a:	83 ec 0c             	sub    $0xc,%esp
  10376d:	8d 45 e6             	lea    -0x1a(%ebp),%eax
  103770:	50                   	push   %eax
  103771:	e8 37 ef ff ff       	call   1026ad <cmos_read_rtc>
  103776:	83 c4 10             	add    $0x10,%esp
  103779:	83 ec 04             	sub    $0x4,%esp
  10377c:	68 cc 11 14 00       	push   $0x1411cc
  103781:	83 ec 08             	sub    $0x8,%esp
  103784:	89 e0                	mov    %esp,%eax
  103786:	8b 55 e6             	mov    -0x1a(%ebp),%edx
  103789:	89 10                	mov    %edx,(%eax)
  10378b:	0f b7 55 ea          	movzwl -0x16(%ebp),%edx
  10378f:	66 89 50 04          	mov    %dx,0x4(%eax)
  103793:	e8 7a 13 00 00       	call   104b12 <cmos_datetime_to_str>
  103798:	83 c4 10             	add    $0x10,%esp
  10379b:	83 ec 0c             	sub    $0xc,%esp
  10379e:	68 e0 09 14 00       	push   $0x1409e0
  1037a3:	e8 22 4a 00 00       	call   1081ca <__redirect_printf__>
  1037a8:	83 c4 10             	add    $0x10,%esp
  1037ab:	83 ec 04             	sub    $0x4,%esp
  1037ae:	68 e0 0d 14 00       	push   $0x140de0
  1037b3:	68 cc 11 14 00       	push   $0x1411cc
  1037b8:	68 56 a2 10 00       	push   $0x10a256
  1037bd:	e8 f0 52 00 00       	call   108ab2 <printf>
  1037c2:	83 c4 10             	add    $0x10,%esp
  1037c5:	83 ec 0c             	sub    $0xc,%esp
  1037c8:	6a 00                	push   $0x0
  1037ca:	e8 fb 49 00 00       	call   1081ca <__redirect_printf__>
  1037cf:	83 c4 10             	add    $0x10,%esp
  1037d2:	83 ec 08             	sub    $0x8,%esp
  1037d5:	68 e0 09 14 00       	push   $0x1409e0
  1037da:	68 f8 03 00 00       	push   $0x3f8
  1037df:	e8 26 ea ff ff       	call   10220a <com_write>
  1037e4:	83 c4 10             	add    $0x10,%esp
  1037e7:	83 ec 04             	sub    $0x4,%esp
  1037ea:	68 00 04 00 00       	push   $0x400
  1037ef:	6a 00                	push   $0x0
  1037f1:	68 e0 09 14 00       	push   $0x1409e0
  1037f6:	e8 30 56 00 00       	call   108e2b <memset>
  1037fb:	83 c4 10             	add    $0x10,%esp
  1037fe:	83 ec 04             	sub    $0x4,%esp
  103801:	68 ec 03 00 00       	push   $0x3ec
  103806:	6a 00                	push   $0x0
  103808:	68 e0 0d 14 00       	push   $0x140de0
  10380d:	e8 19 56 00 00       	call   108e2b <memset>
  103812:	83 c4 10             	add    $0x10,%esp
  103815:	83 ec 04             	sub    $0x4,%esp
  103818:	6a 14                	push   $0x14
  10381a:	6a 00                	push   $0x0
  10381c:	68 cc 11 14 00       	push   $0x1411cc
  103821:	e8 05 56 00 00       	call   108e2b <memset>
  103826:	83 c4 10             	add    $0x10,%esp
  103829:	0f b7 15 f8 08 14 00 	movzwl 0x1408f8,%edx
  103830:	0f b7 05 fc 08 14 00 	movzwl 0x1408fc,%eax
  103837:	09 d0                	or     %edx,%eax
  103839:	0f b7 c0             	movzwl %ax,%eax
  10383c:	8b 15 f0 08 14 00    	mov    0x1408f0,%edx
  103842:	83 ec 08             	sub    $0x8,%esp
  103845:	50                   	push   %eax
  103846:	52                   	push   %edx
  103847:	e8 9e ce ff ff       	call   1006ea <outw>
  10384c:	83 c4 10             	add    $0x10,%esp
  10384f:	a1 f4 08 14 00       	mov    0x1408f4,%eax
  103854:	85 c0                	test   %eax,%eax
  103856:	74 26                	je     10387e <acpi_shutdown+0x345>
  103858:	0f b7 15 fa 08 14 00 	movzwl 0x1408fa,%edx
  10385f:	0f b7 05 fc 08 14 00 	movzwl 0x1408fc,%eax
  103866:	09 d0                	or     %edx,%eax
  103868:	0f b7 c0             	movzwl %ax,%eax
  10386b:	8b 15 f4 08 14 00    	mov    0x1408f4,%edx
  103871:	83 ec 08             	sub    $0x8,%esp
  103874:	50                   	push   %eax
  103875:	52                   	push   %edx
  103876:	e8 6f ce ff ff       	call   1006ea <outw>
  10387b:	83 c4 10             	add    $0x10,%esp
  10387e:	90                   	nop
  10387f:	c9                   	leave  
  103880:	c3                   	ret    

00103881 <acpi_is_enabled>:
  103881:	55                   	push   %ebp
  103882:	89 e5                	mov    %esp,%ebp
  103884:	0f b6 05 03 09 14 00 	movzbl 0x140903,%eax
  10388b:	5d                   	pop    %ebp
  10388c:	c3                   	ret    

0010388d <acpi_is_initialized>:
  10388d:	55                   	push   %ebp
  10388e:	89 e5                	mov    %esp,%ebp
  103890:	0f b7 05 fe 08 14 00 	movzwl 0x1408fe,%eax
  103897:	66 85 c0             	test   %ax,%ax
  10389a:	0f 95 c0             	setne  %al
  10389d:	5d                   	pop    %ebp
  10389e:	c3                   	ret    

0010389f <acpi_get_boot_arch_flags>:
  10389f:	55                   	push   %ebp
  1038a0:	89 e5                	mov    %esp,%ebp
  1038a2:	0f b7 05 00 09 14 00 	movzwl 0x140900,%eax
  1038a9:	5d                   	pop    %ebp
  1038aa:	c3                   	ret    

001038ab <pit_get_count>:
  1038ab:	55                   	push   %ebp
  1038ac:	89 e5                	mov    %esp,%ebp
  1038ae:	83 ec 18             	sub    $0x18,%esp
  1038b1:	c7 45 f4 00 00 00 00 	movl   $0x0,-0xc(%ebp)
  1038b8:	c7 05 0c 09 14 00 00 	movl   $0x0,0x14090c
  1038bf:	00 00 00 
  1038c2:	83 ec 08             	sub    $0x8,%esp
  1038c5:	6a 00                	push   $0x0
  1038c7:	6a 43                	push   $0x43
  1038c9:	e8 f2 cd ff ff       	call   1006c0 <outb>
  1038ce:	83 c4 10             	add    $0x10,%esp
  1038d1:	83 ec 0c             	sub    $0xc,%esp
  1038d4:	6a 40                	push   $0x40
  1038d6:	e8 cc cd ff ff       	call   1006a7 <inb>
  1038db:	83 c4 10             	add    $0x10,%esp
  1038de:	88 45 f3             	mov    %al,-0xd(%ebp)
  1038e1:	83 ec 0c             	sub    $0xc,%esp
  1038e4:	6a 40                	push   $0x40
  1038e6:	e8 bc cd ff ff       	call   1006a7 <inb>
  1038eb:	83 c4 10             	add    $0x10,%esp
  1038ee:	88 45 f2             	mov    %al,-0xe(%ebp)
  1038f1:	0f b6 45 f3          	movzbl -0xd(%ebp),%eax
  1038f5:	89 45 f4             	mov    %eax,-0xc(%ebp)
  1038f8:	80 7d f2 07          	cmpb   $0x7,-0xe(%ebp)
  1038fc:	0f 96 c0             	setbe  %al
  1038ff:	0f b6 c0             	movzbl %al,%eax
  103902:	09 45 f4             	or     %eax,-0xc(%ebp)
  103905:	8b 45 f4             	mov    -0xc(%ebp),%eax
  103908:	c9                   	leave  
  103909:	c3                   	ret    

0010390a <pit_set_count>:
  10390a:	55                   	push   %ebp
  10390b:	89 e5                	mov    %esp,%ebp
  10390d:	83 ec 08             	sub    $0x8,%esp
  103910:	8b 45 08             	mov    0x8(%ebp),%eax
  103913:	0f b6 c0             	movzbl %al,%eax
  103916:	83 ec 08             	sub    $0x8,%esp
  103919:	50                   	push   %eax
  10391a:	6a 40                	push   $0x40
  10391c:	e8 9f cd ff ff       	call   1006c0 <outb>
  103921:	83 c4 10             	add    $0x10,%esp
  103924:	8b 45 08             	mov    0x8(%ebp),%eax
  103927:	c1 e8 08             	shr    $0x8,%eax
  10392a:	0f b6 c0             	movzbl %al,%eax
  10392d:	83 ec 08             	sub    $0x8,%esp
  103930:	50                   	push   %eax
  103931:	6a 40                	push   $0x40
  103933:	e8 88 cd ff ff       	call   1006c0 <outb>
  103938:	83 c4 10             	add    $0x10,%esp
  10393b:	90                   	nop
  10393c:	c9                   	leave  
  10393d:	c3                   	ret    

0010393e <pit_init>:
  10393e:	55                   	push   %ebp
  10393f:	89 e5                	mov    %esp,%ebp
  103941:	83 ec 18             	sub    $0x18,%esp
  103944:	c7 05 04 09 14 00 00 	movl   $0x0,0x140904
  10394b:	00 00 00 
  10394e:	c7 05 08 09 14 00 00 	movl   $0x0,0x140908
  103955:	00 00 00 
  103958:	66 c7 45 f6 9b 2e    	movw   $0x2e9b,-0xa(%ebp)
  10395e:	0f b7 45 f6          	movzwl -0xa(%ebp),%eax
  103962:	88 45 f5             	mov    %al,-0xb(%ebp)
  103965:	0f b7 45 f6          	movzwl -0xa(%ebp),%eax
  103969:	66 c1 e8 08          	shr    $0x8,%ax
  10396d:	88 45 f4             	mov    %al,-0xc(%ebp)
  103970:	83 ec 08             	sub    $0x8,%esp
  103973:	6a 37                	push   $0x37
  103975:	6a 43                	push   $0x43
  103977:	e8 44 cd ff ff       	call   1006c0 <outb>
  10397c:	83 c4 10             	add    $0x10,%esp
  10397f:	0f b6 45 f5          	movzbl -0xb(%ebp),%eax
  103983:	83 ec 08             	sub    $0x8,%esp
  103986:	50                   	push   %eax
  103987:	6a 40                	push   $0x40
  103989:	e8 32 cd ff ff       	call   1006c0 <outb>
  10398e:	83 c4 10             	add    $0x10,%esp
  103991:	0f b6 45 f4          	movzbl -0xc(%ebp),%eax
  103995:	83 ec 08             	sub    $0x8,%esp
  103998:	50                   	push   %eax
  103999:	6a 40                	push   $0x40
  10399b:	e8 20 cd ff ff       	call   1006c0 <outb>
  1039a0:	83 c4 10             	add    $0x10,%esp
  1039a3:	83 ec 08             	sub    $0x8,%esp
  1039a6:	68 f0 39 10 00       	push   $0x1039f0
  1039ab:	6a 20                	push   $0x20
  1039ad:	e8 9c d7 ff ff       	call   10114e <isr_register>
  1039b2:	83 c4 10             	add    $0x10,%esp
  1039b5:	90                   	nop
  1039b6:	c9                   	leave  
  1039b7:	c3                   	ret    

001039b8 <pit_get_millis>:
  1039b8:	55                   	push   %ebp
  1039b9:	89 e5                	mov    %esp,%ebp
  1039bb:	a1 08 09 14 00       	mov    0x140908,%eax
  1039c0:	5d                   	pop    %ebp
  1039c1:	c3                   	ret    

001039c2 <pit_get_seconds>:
  1039c2:	55                   	push   %ebp
  1039c3:	89 e5                	mov    %esp,%ebp
  1039c5:	a1 08 09 14 00       	mov    0x140908,%eax
  1039ca:	ba d3 4d 62 10       	mov    $0x10624dd3,%edx
  1039cf:	f7 e2                	mul    %edx
  1039d1:	89 d0                	mov    %edx,%eax
  1039d3:	c1 e8 06             	shr    $0x6,%eax
  1039d6:	5d                   	pop    %ebp
  1039d7:	c3                   	ret    

001039d8 <pit_get_ticks>:
  1039d8:	55                   	push   %ebp
  1039d9:	89 e5                	mov    %esp,%ebp
  1039db:	a1 04 09 14 00       	mov    0x140904,%eax
  1039e0:	5d                   	pop    %ebp
  1039e1:	c3                   	ret    

001039e2 <pit_set_callback>:
  1039e2:	55                   	push   %ebp
  1039e3:	89 e5                	mov    %esp,%ebp
  1039e5:	8b 45 08             	mov    0x8(%ebp),%eax
  1039e8:	a3 0c 09 14 00       	mov    %eax,0x14090c
  1039ed:	90                   	nop
  1039ee:	5d                   	pop    %ebp
  1039ef:	c3                   	ret    

001039f0 <pit_irq0_handler>:
  1039f0:	55                   	push   %ebp
  1039f1:	89 e5                	mov    %esp,%ebp
  1039f3:	83 ec 08             	sub    $0x8,%esp
  1039f6:	a1 04 09 14 00       	mov    0x140904,%eax
  1039fb:	83 c0 01             	add    $0x1,%eax
  1039fe:	a3 04 09 14 00       	mov    %eax,0x140904
  103a03:	8b 15 04 09 14 00    	mov    0x140904,%edx
  103a09:	89 d0                	mov    %edx,%eax
  103a0b:	01 c0                	add    %eax,%eax
  103a0d:	01 d0                	add    %edx,%eax
  103a0f:	a3 08 09 14 00       	mov    %eax,0x140908
  103a14:	83 ec 08             	sub    $0x8,%esp
  103a17:	6a 20                	push   $0x20
  103a19:	6a 20                	push   $0x20
  103a1b:	e8 a0 cc ff ff       	call   1006c0 <outb>
  103a20:	83 c4 10             	add    $0x10,%esp
  103a23:	a1 0c 09 14 00       	mov    0x14090c,%eax
  103a28:	85 c0                	test   %eax,%eax
  103a2a:	74 1b                	je     103a47 <pit_irq0_handler+0x57>
  103a2c:	a1 0c 09 14 00       	mov    0x14090c,%eax
  103a31:	8b 0d 08 09 14 00    	mov    0x140908,%ecx
  103a37:	8b 15 04 09 14 00    	mov    0x140904,%edx
  103a3d:	83 ec 08             	sub    $0x8,%esp
  103a40:	51                   	push   %ecx
  103a41:	52                   	push   %edx
  103a42:	ff d0                	call   *%eax
  103a44:	83 c4 10             	add    $0x10,%esp
  103a47:	90                   	nop
  103a48:	c9                   	leave  
  103a49:	c3                   	ret    

00103a4a <keyboard_init>:
  103a4a:	55                   	push   %ebp
  103a4b:	89 e5                	mov    %esp,%ebp
  103a4d:	83 ec 28             	sub    $0x28,%esp
  103a50:	8b 45 08             	mov    0x8(%ebp),%eax
  103a53:	88 45 e4             	mov    %al,-0x1c(%ebp)
  103a56:	c6 05 10 09 14 00 00 	movb   $0x0,0x140910
  103a5d:	c6 05 11 09 14 00 00 	movb   $0x0,0x140911
  103a64:	0f b6 45 e4          	movzbl -0x1c(%ebp),%eax
  103a68:	a2 12 09 14 00       	mov    %al,0x140912
  103a6d:	83 ec 08             	sub    $0x8,%esp
  103a70:	68 6e 3b 10 00       	push   $0x103b6e
  103a75:	6a 21                	push   $0x21
  103a77:	e8 d2 d6 ff ff       	call   10114e <isr_register>
  103a7c:	83 c4 10             	add    $0x10,%esp
  103a7f:	83 ec 0c             	sub    $0xc,%esp
  103a82:	68 e0 0d 14 00       	push   $0x140de0
  103a87:	e8 3e 47 00 00       	call   1081ca <__redirect_printf__>
  103a8c:	83 c4 10             	add    $0x10,%esp
  103a8f:	83 ec 0c             	sub    $0xc,%esp
  103a92:	68 ac a3 10 00       	push   $0x10a3ac
  103a97:	e8 16 50 00 00       	call   108ab2 <printf>
  103a9c:	83 c4 10             	add    $0x10,%esp
  103a9f:	83 ec 0c             	sub    $0xc,%esp
  103aa2:	6a 00                	push   $0x0
  103aa4:	e8 21 47 00 00       	call   1081ca <__redirect_printf__>
  103aa9:	83 c4 10             	add    $0x10,%esp
  103aac:	83 ec 0c             	sub    $0xc,%esp
  103aaf:	8d 45 f2             	lea    -0xe(%ebp),%eax
  103ab2:	50                   	push   %eax
  103ab3:	e8 f5 eb ff ff       	call   1026ad <cmos_read_rtc>
  103ab8:	83 c4 10             	add    $0x10,%esp
  103abb:	83 ec 04             	sub    $0x4,%esp
  103abe:	68 cc 11 14 00       	push   $0x1411cc
  103ac3:	83 ec 08             	sub    $0x8,%esp
  103ac6:	89 e0                	mov    %esp,%eax
  103ac8:	8b 55 f2             	mov    -0xe(%ebp),%edx
  103acb:	89 10                	mov    %edx,(%eax)
  103acd:	0f b7 55 f6          	movzwl -0xa(%ebp),%edx
  103ad1:	66 89 50 04          	mov    %dx,0x4(%eax)
  103ad5:	e8 38 10 00 00       	call   104b12 <cmos_datetime_to_str>
  103ada:	83 c4 10             	add    $0x10,%esp
  103add:	83 ec 0c             	sub    $0xc,%esp
  103ae0:	68 e0 09 14 00       	push   $0x1409e0
  103ae5:	e8 e0 46 00 00       	call   1081ca <__redirect_printf__>
  103aea:	83 c4 10             	add    $0x10,%esp
  103aed:	83 ec 04             	sub    $0x4,%esp
  103af0:	68 e0 0d 14 00       	push   $0x140de0
  103af5:	68 cc 11 14 00       	push   $0x1411cc
  103afa:	68 c2 a3 10 00       	push   $0x10a3c2
  103aff:	e8 ae 4f 00 00       	call   108ab2 <printf>
  103b04:	83 c4 10             	add    $0x10,%esp
  103b07:	83 ec 0c             	sub    $0xc,%esp
  103b0a:	6a 00                	push   $0x0
  103b0c:	e8 b9 46 00 00       	call   1081ca <__redirect_printf__>
  103b11:	83 c4 10             	add    $0x10,%esp
  103b14:	83 ec 08             	sub    $0x8,%esp
  103b17:	68 e0 09 14 00       	push   $0x1409e0
  103b1c:	68 f8 03 00 00       	push   $0x3f8
  103b21:	e8 e4 e6 ff ff       	call   10220a <com_write>
  103b26:	83 c4 10             	add    $0x10,%esp
  103b29:	83 ec 04             	sub    $0x4,%esp
  103b2c:	68 00 04 00 00       	push   $0x400
  103b31:	6a 00                	push   $0x0
  103b33:	68 e0 09 14 00       	push   $0x1409e0
  103b38:	e8 ee 52 00 00       	call   108e2b <memset>
  103b3d:	83 c4 10             	add    $0x10,%esp
  103b40:	83 ec 04             	sub    $0x4,%esp
  103b43:	68 ec 03 00 00       	push   $0x3ec
  103b48:	6a 00                	push   $0x0
  103b4a:	68 e0 0d 14 00       	push   $0x140de0
  103b4f:	e8 d7 52 00 00       	call   108e2b <memset>
  103b54:	83 c4 10             	add    $0x10,%esp
  103b57:	83 ec 04             	sub    $0x4,%esp
  103b5a:	6a 14                	push   $0x14
  103b5c:	6a 00                	push   $0x0
  103b5e:	68 cc 11 14 00       	push   $0x1411cc
  103b63:	e8 c3 52 00 00       	call   108e2b <memset>
  103b68:	83 c4 10             	add    $0x10,%esp
  103b6b:	90                   	nop
  103b6c:	c9                   	leave  
  103b6d:	c3                   	ret    

00103b6e <keyboard_irq_handler>:
  103b6e:	55                   	push   %ebp
  103b6f:	89 e5                	mov    %esp,%ebp
  103b71:	83 ec 18             	sub    $0x18,%esp
  103b74:	0f b6 05 12 09 14 00 	movzbl 0x140912,%eax
  103b7b:	0f b6 c0             	movzbl %al,%eax
  103b7e:	83 ec 0c             	sub    $0xc,%esp
  103b81:	50                   	push   %eax
  103b82:	e8 20 cb ff ff       	call   1006a7 <inb>
  103b87:	83 c4 10             	add    $0x10,%esp
  103b8a:	88 45 f6             	mov    %al,-0xa(%ebp)
  103b8d:	c6 45 f7 00          	movb   $0x0,-0x9(%ebp)
  103b91:	0f b6 45 f6          	movzbl -0xa(%ebp),%eax
  103b95:	3d ba 00 00 00       	cmp    $0xba,%eax
  103b9a:	0f 87 63 06 00 00    	ja     104203 <keyboard_irq_handler+0x695>
  103ba0:	8b 04 85 f8 a3 10 00 	mov    0x10a3f8(,%eax,4),%eax
  103ba7:	ff e0                	jmp    *%eax
  103ba9:	0f b6 05 11 09 14 00 	movzbl 0x140911,%eax
  103bb0:	3c 01                	cmp    $0x1,%al
  103bb2:	75 07                	jne    103bbb <keyboard_irq_handler+0x4d>
  103bb4:	b8 21 00 00 00       	mov    $0x21,%eax
  103bb9:	eb 05                	jmp    103bc0 <keyboard_irq_handler+0x52>
  103bbb:	b8 31 00 00 00       	mov    $0x31,%eax
  103bc0:	88 45 f7             	mov    %al,-0x9(%ebp)
  103bc3:	e9 2f 07 00 00       	jmp    1042f7 <keyboard_irq_handler+0x789>
  103bc8:	0f b6 05 11 09 14 00 	movzbl 0x140911,%eax
  103bcf:	3c 01                	cmp    $0x1,%al
  103bd1:	75 07                	jne    103bda <keyboard_irq_handler+0x6c>
  103bd3:	b8 22 00 00 00       	mov    $0x22,%eax
  103bd8:	eb 05                	jmp    103bdf <keyboard_irq_handler+0x71>
  103bda:	b8 32 00 00 00       	mov    $0x32,%eax
  103bdf:	88 45 f7             	mov    %al,-0x9(%ebp)
  103be2:	e9 10 07 00 00       	jmp    1042f7 <keyboard_irq_handler+0x789>
  103be7:	c6 45 f7 33          	movb   $0x33,-0x9(%ebp)
  103beb:	e9 07 07 00 00       	jmp    1042f7 <keyboard_irq_handler+0x789>
  103bf0:	0f b6 05 11 09 14 00 	movzbl 0x140911,%eax
  103bf7:	3c 01                	cmp    $0x1,%al
  103bf9:	75 07                	jne    103c02 <keyboard_irq_handler+0x94>
  103bfb:	b8 24 00 00 00       	mov    $0x24,%eax
  103c00:	eb 05                	jmp    103c07 <keyboard_irq_handler+0x99>
  103c02:	b8 34 00 00 00       	mov    $0x34,%eax
  103c07:	88 45 f7             	mov    %al,-0x9(%ebp)
  103c0a:	e9 e8 06 00 00       	jmp    1042f7 <keyboard_irq_handler+0x789>
  103c0f:	0f b6 05 11 09 14 00 	movzbl 0x140911,%eax
  103c16:	3c 01                	cmp    $0x1,%al
  103c18:	75 07                	jne    103c21 <keyboard_irq_handler+0xb3>
  103c1a:	b8 25 00 00 00       	mov    $0x25,%eax
  103c1f:	eb 05                	jmp    103c26 <keyboard_irq_handler+0xb8>
  103c21:	b8 35 00 00 00       	mov    $0x35,%eax
  103c26:	88 45 f7             	mov    %al,-0x9(%ebp)
  103c29:	e9 c9 06 00 00       	jmp    1042f7 <keyboard_irq_handler+0x789>
  103c2e:	0f b6 05 11 09 14 00 	movzbl 0x140911,%eax
  103c35:	3c 01                	cmp    $0x1,%al
  103c37:	75 07                	jne    103c40 <keyboard_irq_handler+0xd2>
  103c39:	b8 26 00 00 00       	mov    $0x26,%eax
  103c3e:	eb 05                	jmp    103c45 <keyboard_irq_handler+0xd7>
  103c40:	b8 36 00 00 00       	mov    $0x36,%eax
  103c45:	88 45 f7             	mov    %al,-0x9(%ebp)
  103c48:	e9 aa 06 00 00       	jmp    1042f7 <keyboard_irq_handler+0x789>
  103c4d:	0f b6 05 11 09 14 00 	movzbl 0x140911,%eax
  103c54:	3c 01                	cmp    $0x1,%al
  103c56:	75 07                	jne    103c5f <keyboard_irq_handler+0xf1>
  103c58:	b8 2f 00 00 00       	mov    $0x2f,%eax
  103c5d:	eb 05                	jmp    103c64 <keyboard_irq_handler+0xf6>
  103c5f:	b8 37 00 00 00       	mov    $0x37,%eax
  103c64:	88 45 f7             	mov    %al,-0x9(%ebp)
  103c67:	e9 8b 06 00 00       	jmp    1042f7 <keyboard_irq_handler+0x789>
  103c6c:	0f b6 05 11 09 14 00 	movzbl 0x140911,%eax
  103c73:	3c 01                	cmp    $0x1,%al
  103c75:	75 07                	jne    103c7e <keyboard_irq_handler+0x110>
  103c77:	b8 28 00 00 00       	mov    $0x28,%eax
  103c7c:	eb 05                	jmp    103c83 <keyboard_irq_handler+0x115>
  103c7e:	b8 38 00 00 00       	mov    $0x38,%eax
  103c83:	88 45 f7             	mov    %al,-0x9(%ebp)
  103c86:	e9 6c 06 00 00       	jmp    1042f7 <keyboard_irq_handler+0x789>
  103c8b:	0f b6 05 11 09 14 00 	movzbl 0x140911,%eax
  103c92:	3c 01                	cmp    $0x1,%al
  103c94:	75 07                	jne    103c9d <keyboard_irq_handler+0x12f>
  103c96:	b8 29 00 00 00       	mov    $0x29,%eax
  103c9b:	eb 05                	jmp    103ca2 <keyboard_irq_handler+0x134>
  103c9d:	b8 39 00 00 00       	mov    $0x39,%eax
  103ca2:	88 45 f7             	mov    %al,-0x9(%ebp)
  103ca5:	e9 4d 06 00 00       	jmp    1042f7 <keyboard_irq_handler+0x789>
  103caa:	0f b6 05 11 09 14 00 	movzbl 0x140911,%eax
  103cb1:	3c 01                	cmp    $0x1,%al
  103cb3:	75 07                	jne    103cbc <keyboard_irq_handler+0x14e>
  103cb5:	b8 3d 00 00 00       	mov    $0x3d,%eax
  103cba:	eb 05                	jmp    103cc1 <keyboard_irq_handler+0x153>
  103cbc:	b8 30 00 00 00       	mov    $0x30,%eax
  103cc1:	88 45 f7             	mov    %al,-0x9(%ebp)
  103cc4:	e9 2e 06 00 00       	jmp    1042f7 <keyboard_irq_handler+0x789>
  103cc9:	0f b6 15 11 09 14 00 	movzbl 0x140911,%edx
  103cd0:	0f b6 05 10 09 14 00 	movzbl 0x140910,%eax
  103cd7:	38 c2                	cmp    %al,%dl
  103cd9:	75 07                	jne    103ce2 <keyboard_irq_handler+0x174>
  103cdb:	b8 71 00 00 00       	mov    $0x71,%eax
  103ce0:	eb 05                	jmp    103ce7 <keyboard_irq_handler+0x179>
  103ce2:	b8 51 00 00 00       	mov    $0x51,%eax
  103ce7:	88 45 f7             	mov    %al,-0x9(%ebp)
  103cea:	e9 08 06 00 00       	jmp    1042f7 <keyboard_irq_handler+0x789>
  103cef:	0f b6 15 11 09 14 00 	movzbl 0x140911,%edx
  103cf6:	0f b6 05 10 09 14 00 	movzbl 0x140910,%eax
  103cfd:	38 c2                	cmp    %al,%dl
  103cff:	75 07                	jne    103d08 <keyboard_irq_handler+0x19a>
  103d01:	b8 77 00 00 00       	mov    $0x77,%eax
  103d06:	eb 05                	jmp    103d0d <keyboard_irq_handler+0x19f>
  103d08:	b8 57 00 00 00       	mov    $0x57,%eax
  103d0d:	88 45 f7             	mov    %al,-0x9(%ebp)
  103d10:	e9 e2 05 00 00       	jmp    1042f7 <keyboard_irq_handler+0x789>
  103d15:	0f b6 15 11 09 14 00 	movzbl 0x140911,%edx
  103d1c:	0f b6 05 10 09 14 00 	movzbl 0x140910,%eax
  103d23:	38 c2                	cmp    %al,%dl
  103d25:	75 07                	jne    103d2e <keyboard_irq_handler+0x1c0>
  103d27:	b8 65 00 00 00       	mov    $0x65,%eax
  103d2c:	eb 05                	jmp    103d33 <keyboard_irq_handler+0x1c5>
  103d2e:	b8 45 00 00 00       	mov    $0x45,%eax
  103d33:	88 45 f7             	mov    %al,-0x9(%ebp)
  103d36:	e9 bc 05 00 00       	jmp    1042f7 <keyboard_irq_handler+0x789>
  103d3b:	0f b6 15 11 09 14 00 	movzbl 0x140911,%edx
  103d42:	0f b6 05 10 09 14 00 	movzbl 0x140910,%eax
  103d49:	38 c2                	cmp    %al,%dl
  103d4b:	75 07                	jne    103d54 <keyboard_irq_handler+0x1e6>
  103d4d:	b8 72 00 00 00       	mov    $0x72,%eax
  103d52:	eb 05                	jmp    103d59 <keyboard_irq_handler+0x1eb>
  103d54:	b8 52 00 00 00       	mov    $0x52,%eax
  103d59:	88 45 f7             	mov    %al,-0x9(%ebp)
  103d5c:	e9 96 05 00 00       	jmp    1042f7 <keyboard_irq_handler+0x789>
  103d61:	0f b6 15 11 09 14 00 	movzbl 0x140911,%edx
  103d68:	0f b6 05 10 09 14 00 	movzbl 0x140910,%eax
  103d6f:	38 c2                	cmp    %al,%dl
  103d71:	75 07                	jne    103d7a <keyboard_irq_handler+0x20c>
  103d73:	b8 74 00 00 00       	mov    $0x74,%eax
  103d78:	eb 05                	jmp    103d7f <keyboard_irq_handler+0x211>
  103d7a:	b8 54 00 00 00       	mov    $0x54,%eax
  103d7f:	88 45 f7             	mov    %al,-0x9(%ebp)
  103d82:	e9 70 05 00 00       	jmp    1042f7 <keyboard_irq_handler+0x789>
  103d87:	0f b6 15 11 09 14 00 	movzbl 0x140911,%edx
  103d8e:	0f b6 05 10 09 14 00 	movzbl 0x140910,%eax
  103d95:	38 c2                	cmp    %al,%dl
  103d97:	75 07                	jne    103da0 <keyboard_irq_handler+0x232>
  103d99:	b8 79 00 00 00       	mov    $0x79,%eax
  103d9e:	eb 05                	jmp    103da5 <keyboard_irq_handler+0x237>
  103da0:	b8 59 00 00 00       	mov    $0x59,%eax
  103da5:	88 45 f7             	mov    %al,-0x9(%ebp)
  103da8:	e9 4a 05 00 00       	jmp    1042f7 <keyboard_irq_handler+0x789>
  103dad:	0f b6 15 11 09 14 00 	movzbl 0x140911,%edx
  103db4:	0f b6 05 10 09 14 00 	movzbl 0x140910,%eax
  103dbb:	38 c2                	cmp    %al,%dl
  103dbd:	75 07                	jne    103dc6 <keyboard_irq_handler+0x258>
  103dbf:	b8 75 00 00 00       	mov    $0x75,%eax
  103dc4:	eb 05                	jmp    103dcb <keyboard_irq_handler+0x25d>
  103dc6:	b8 55 00 00 00       	mov    $0x55,%eax
  103dcb:	88 45 f7             	mov    %al,-0x9(%ebp)
  103dce:	e9 24 05 00 00       	jmp    1042f7 <keyboard_irq_handler+0x789>
  103dd3:	0f b6 15 11 09 14 00 	movzbl 0x140911,%edx
  103dda:	0f b6 05 10 09 14 00 	movzbl 0x140910,%eax
  103de1:	38 c2                	cmp    %al,%dl
  103de3:	75 07                	jne    103dec <keyboard_irq_handler+0x27e>
  103de5:	b8 69 00 00 00       	mov    $0x69,%eax
  103dea:	eb 05                	jmp    103df1 <keyboard_irq_handler+0x283>
  103dec:	b8 49 00 00 00       	mov    $0x49,%eax
  103df1:	88 45 f7             	mov    %al,-0x9(%ebp)
  103df4:	e9 fe 04 00 00       	jmp    1042f7 <keyboard_irq_handler+0x789>
  103df9:	0f b6 15 11 09 14 00 	movzbl 0x140911,%edx
  103e00:	0f b6 05 10 09 14 00 	movzbl 0x140910,%eax
  103e07:	38 c2                	cmp    %al,%dl
  103e09:	75 07                	jne    103e12 <keyboard_irq_handler+0x2a4>
  103e0b:	b8 6f 00 00 00       	mov    $0x6f,%eax
  103e10:	eb 05                	jmp    103e17 <keyboard_irq_handler+0x2a9>
  103e12:	b8 4f 00 00 00       	mov    $0x4f,%eax
  103e17:	88 45 f7             	mov    %al,-0x9(%ebp)
  103e1a:	e9 d8 04 00 00       	jmp    1042f7 <keyboard_irq_handler+0x789>
  103e1f:	0f b6 15 11 09 14 00 	movzbl 0x140911,%edx
  103e26:	0f b6 05 10 09 14 00 	movzbl 0x140910,%eax
  103e2d:	38 c2                	cmp    %al,%dl
  103e2f:	75 07                	jne    103e38 <keyboard_irq_handler+0x2ca>
  103e31:	b8 70 00 00 00       	mov    $0x70,%eax
  103e36:	eb 05                	jmp    103e3d <keyboard_irq_handler+0x2cf>
  103e38:	b8 50 00 00 00       	mov    $0x50,%eax
  103e3d:	88 45 f7             	mov    %al,-0x9(%ebp)
  103e40:	e9 b2 04 00 00       	jmp    1042f7 <keyboard_irq_handler+0x789>
  103e45:	0f b6 15 11 09 14 00 	movzbl 0x140911,%edx
  103e4c:	0f b6 05 10 09 14 00 	movzbl 0x140910,%eax
  103e53:	38 c2                	cmp    %al,%dl
  103e55:	75 07                	jne    103e5e <keyboard_irq_handler+0x2f0>
  103e57:	b8 65 00 00 00       	mov    $0x65,%eax
  103e5c:	eb 05                	jmp    103e63 <keyboard_irq_handler+0x2f5>
  103e5e:	b8 45 00 00 00       	mov    $0x45,%eax
